ccopy_reg
_reconstructor
p1
(cmatplotlib.font_manager
FontManager
p2
c__builtin__
object
p3
NtRp4
(dp5
S'ttflist'
p6
(lp7
g1
(cmatplotlib.font_manager
FontEntry
p8
g3
NtRp9
(dp10
S'style'
p11
Vitalic
p12
sS'name'
p13
VSTIXGeneral
p14
sS'weight'
p15
I700
sS'stretch'
p16
Vnormal
p17
sS'variant'
p18
g17
sS'fname'
p19
V/home/jeff/.local/lib/python2.7/site-packages/matplotlib/mpl-data/fonts/ttf/STIXGeneralBolIta.ttf
p20
sS'size'
p21
Vscalable
p22
sbag1
(g8
g3
NtRp23
(dp24
g11
g17
sg13
VSTIXSizeOneSym
p25
sg15
I700
sg16
g17
sg18
g17
sg19
V/home/jeff/.local/lib/python2.7/site-packages/matplotlib/mpl-data/fonts/ttf/STIXSizOneSymBol.ttf
p26
sg21
g22
sbag1
(g8
g3
NtRp27
(dp28
g11
g17
sg13
VSTIXNonUnicode
p29
sg15
I700
sg16
g17
sg18
g17
sg19
V/home/jeff/.local/lib/python2.7/site-packages/matplotlib/mpl-data/fonts/ttf/STIXNonUniBol.ttf
p30
sg21
g22
sbag1
(g8
g3
NtRp31
(dp32
g11
Voblique
p33
sg13
VBitstream Vera Sans
p34
sg15
I700
sg16
g17
sg18
g17
sg19
V/home/jeff/.local/lib/python2.7/site-packages/matplotlib/mpl-data/fonts/ttf/VeraBI.ttf
p35
sg21
g22
sbag1
(g8
g3
NtRp36
(dp37
g11
g17
sg13
Vcmsy10
p38
sg15
I400
sg16
g17
sg18
g17
sg19
V/home/jeff/.local/lib/python2.7/site-packages/matplotlib/mpl-data/fonts/ttf/cmsy10.ttf
p39
sg21
g22
sbag1
(g8
g3
NtRp40
(dp41
g11
g17
sg13
VBitstream Vera Serif
p42
sg15
I700
sg16
g17
sg18
g17
sg19
V/home/jeff/.local/lib/python2.7/site-packages/matplotlib/mpl-data/fonts/ttf/VeraSeBd.ttf
p43
sg21
g22
sbag1
(g8
g3
NtRp44
(dp45
g11
g33
sg13
VBitstream Vera Sans Mono
p46
sg15
I400
sg16
g17
sg18
g17
sg19
V/home/jeff/.local/lib/python2.7/site-packages/matplotlib/mpl-data/fonts/ttf/VeraMoIt.ttf
p47
sg21
g22
sbag1
(g8
g3
NtRp48
(dp49
g11
g17
sg13
Vcmb10
p50
sg15
I400
sg16
g17
sg18
g17
sg19
V/home/jeff/.local/lib/python2.7/site-packages/matplotlib/mpl-data/fonts/ttf/cmb10.ttf
p51
sg21
g22
sbag1
(g8
g3
NtRp52
(dp53
g11
g17
sg13
VBitstream Vera Sans
p54
sg15
I700
sg16
g17
sg18
g17
sg19
V/home/jeff/.local/lib/python2.7/site-packages/matplotlib/mpl-data/fonts/ttf/VeraBd.ttf
p55
sg21
g22
sbag1
(g8
g3
NtRp56
(dp57
g11
g17
sg13
VBitstream Vera Sans Mono
p58
sg15
I700
sg16
g17
sg18
g17
sg19
V/home/jeff/.local/lib/python2.7/site-packages/matplotlib/mpl-data/fonts/ttf/VeraMoBd.ttf
p59
sg21
g22
sbag1
(g8
g3
NtRp60
(dp61
g11
g17
sg13
VSTIXGeneral
p62
sg15
I400
sg16
g17
sg18
g17
sg19
V/home/jeff/.local/lib/python2.7/site-packages/matplotlib/mpl-data/fonts/ttf/STIXGeneral.ttf
p63
sg21
g22
sbag1
(g8
g3
NtRp64
(dp65
g11
g17
sg13
VSTIXSizeThreeSym
p66
sg15
I700
sg16
g17
sg18
g17
sg19
V/home/jeff/.local/lib/python2.7/site-packages/matplotlib/mpl-data/fonts/ttf/STIXSizThreeSymBol.ttf
p67
sg21
g22
sbag1
(g8
g3
NtRp68
(dp69
g11
g17
sg13
VBitstream Vera Sans
p70
sg15
I400
sg16
g17
sg18
g17
sg19
V/home/jeff/.local/lib/python2.7/site-packages/matplotlib/mpl-data/fonts/ttf/Vera.ttf
p71
sg21
g22
sbag1
(g8
g3
NtRp72
(dp73
g11
g17
sg13
VSTIXSizeThreeSym
p74
sg15
I400
sg16
g17
sg18
g17
sg19
V/home/jeff/.local/lib/python2.7/site-packages/matplotlib/mpl-data/fonts/ttf/STIXSizThreeSymReg.ttf
p75
sg21
g22
sbag1
(g8
g3
NtRp76
(dp77
g11
g17
sg13
Vcmss10
p78
sg15
I400
sg16
g17
sg18
g17
sg19
V/home/jeff/.local/lib/python2.7/site-packages/matplotlib/mpl-data/fonts/ttf/cmss10.ttf
p79
sg21
g22
sbag1
(g8
g3
NtRp80
(dp81
g11
g17
sg13
VBitstream Vera Serif
p82
sg15
I400
sg16
g17
sg18
g17
sg19
V/home/jeff/.local/lib/python2.7/site-packages/matplotlib/mpl-data/fonts/ttf/VeraSe.ttf
p83
sg21
g22
sbag1
(g8
g3
NtRp84
(dp85
g11
g33
sg13
VBitstream Vera Sans Mono
p86
sg15
I700
sg16
g17
sg18
g17
sg19
V/home/jeff/.local/lib/python2.7/site-packages/matplotlib/mpl-data/fonts/ttf/VeraMoBI.ttf
p87
sg21
g22
sbag1
(g8
g3
NtRp88
(dp89
g11
g17
sg13
VSTIXGeneral
p90
sg15
I700
sg16
g17
sg18
g17
sg19
V/home/jeff/.local/lib/python2.7/site-packages/matplotlib/mpl-data/fonts/ttf/STIXGeneralBol.ttf
p91
sg21
g22
sbag1
(g8
g3
NtRp92
(dp93
g11
g17
sg13
Vcmex10
p94
sg15
I400
sg16
g17
sg18
g17
sg19
V/home/jeff/.local/lib/python2.7/site-packages/matplotlib/mpl-data/fonts/ttf/cmex10.ttf
p95
sg21
g22
sbag1
(g8
g3
NtRp96
(dp97
g11
g17
sg13
Vcmr10
p98
sg15
I400
sg16
g17
sg18
g17
sg19
V/home/jeff/.local/lib/python2.7/site-packages/matplotlib/mpl-data/fonts/ttf/cmr10.ttf
p99
sg21
g22
sbag1
(g8
g3
NtRp100
(dp101
g11
g17
sg13
Vcmmi10
p102
sg15
I400
sg16
g17
sg18
g17
sg19
V/home/jeff/.local/lib/python2.7/site-packages/matplotlib/mpl-data/fonts/ttf/cmmi10.ttf
p103
sg21
g22
sbag1
(g8
g3
NtRp104
(dp105
g11
g12
sg13
VSTIXNonUnicode
p106
sg15
I700
sg16
g17
sg18
g17
sg19
V/home/jeff/.local/lib/python2.7/site-packages/matplotlib/mpl-data/fonts/ttf/STIXNonUniBolIta.ttf
p107
sg21
g22
sbag1
(g8
g3
NtRp108
(dp109
g11
g17
sg13
VSTIXSizeFiveSym
p110
sg15
I400
sg16
g17
sg18
g17
sg19
V/home/jeff/.local/lib/python2.7/site-packages/matplotlib/mpl-data/fonts/ttf/STIXSizFiveSymReg.ttf
p111
sg21
g22
sbag1
(g8
g3
NtRp112
(dp113
g11
g17
sg13
VSTIXSizeOneSym
p114
sg15
I400
sg16
g17
sg18
g17
sg19
V/home/jeff/.local/lib/python2.7/site-packages/matplotlib/mpl-data/fonts/ttf/STIXSizOneSymReg.ttf
p115
sg21
g22
sbag1
(g8
g3
NtRp116
(dp117
g11
g17
sg13
VSTIXNonUnicode
p118
sg15
I400
sg16
g17
sg18
g17
sg19
V/home/jeff/.local/lib/python2.7/site-packages/matplotlib/mpl-data/fonts/ttf/STIXNonUni.ttf
p119
sg21
g22
sbag1
(g8
g3
NtRp120
(dp121
g11
g12
sg13
VSTIXGeneral
p122
sg15
I400
sg16
g17
sg18
g17
sg19
V/home/jeff/.local/lib/python2.7/site-packages/matplotlib/mpl-data/fonts/ttf/STIXGeneralItalic.ttf
p123
sg21
g22
sbag1
(g8
g3
NtRp124
(dp125
g11
g17
sg13
VSTIXSizeTwoSym
p126
sg15
I400
sg16
g17
sg18
g17
sg19
V/home/jeff/.local/lib/python2.7/site-packages/matplotlib/mpl-data/fonts/ttf/STIXSizTwoSymReg.ttf
p127
sg21
g22
sbag1
(g8
g3
NtRp128
(dp129
g11
g17
sg13
VSTIXSizeTwoSym
p130
sg15
I700
sg16
g17
sg18
g17
sg19
V/home/jeff/.local/lib/python2.7/site-packages/matplotlib/mpl-data/fonts/ttf/STIXSizTwoSymBol.ttf
p131
sg21
g22
sbag1
(g8
g3
NtRp132
(dp133
g11
g12
sg13
VSTIXNonUnicode
p134
sg15
I400
sg16
g17
sg18
g17
sg19
V/home/jeff/.local/lib/python2.7/site-packages/matplotlib/mpl-data/fonts/ttf/STIXNonUniIta.ttf
p135
sg21
g22
sbag1
(g8
g3
NtRp136
(dp137
g11
g17
sg13
Vcmtt10
p138
sg15
I400
sg16
g17
sg18
g17
sg19
V/home/jeff/.local/lib/python2.7/site-packages/matplotlib/mpl-data/fonts/ttf/cmtt10.ttf
p139
sg21
g22
sbag1
(g8
g3
NtRp140
(dp141
g11
g17
sg13
VBitstream Vera Sans Mono
p142
sg15
I400
sg16
g17
sg18
g17
sg19
V/home/jeff/.local/lib/python2.7/site-packages/matplotlib/mpl-data/fonts/ttf/VeraMono.ttf
p143
sg21
g22
sbag1
(g8
g3
NtRp144
(dp145
g11
g17
sg13
VSTIXSizeFourSym
p146
sg15
I400
sg16
g17
sg18
g17
sg19
V/home/jeff/.local/lib/python2.7/site-packages/matplotlib/mpl-data/fonts/ttf/STIXSizFourSymReg.ttf
p147
sg21
g22
sbag1
(g8
g3
NtRp148
(dp149
g11
g33
sg13
VBitstream Vera Sans
p150
sg15
I400
sg16
g17
sg18
g17
sg19
V/home/jeff/.local/lib/python2.7/site-packages/matplotlib/mpl-data/fonts/ttf/VeraIt.ttf
p151
sg21
g22
sbag1
(g8
g3
NtRp152
(dp153
g11
g17
sg13
VSTIXSizeFourSym
p154
sg15
I700
sg16
g17
sg18
g17
sg19
V/home/jeff/.local/lib/python2.7/site-packages/matplotlib/mpl-data/fonts/ttf/STIXSizFourSymBol.ttf
p155
sg21
g22
sbag1
(g8
g3
NtRp156
(dp157
g11
g17
sg13
VSTIXIntegralsUp
p158
sg15
I400
sg16
g17
sg18
g17
sg19
V/usr/share/fonts/opentype/stix/STIXIntegralsUp-Regular.otf
p159
sg21
g22
sbag1
(g8
g3
NtRp160
(dp161
g11
g17
sg13
VKacstTitle
p162
sg15
I400
sg16
g17
sg18
g17
sg19
V/usr/share/fonts/truetype/kacst/KacstTitle.ttf
p163
sg21
g22
sbag1
(g8
g3
NtRp164
(dp165
g11
g17
sg13
VUbuntu
p166
sg15
I500
sg16
g17
sg18
g17
sg19
V/usr/share/fonts/truetype/ubuntu-font-family/Ubuntu-M.ttf
p167
sg21
g22
sbag1
(g8
g3
NtRp168
(dp169
g11
g12
sg13
VLaksaman
p170
sg15
I700
sg16
g17
sg18
g17
sg19
V/usr/share/fonts/truetype/tlwg/Laksaman-BoldItalic.ttf
p171
sg21
g22
sbag1
(g8
g3
NtRp172
(dp173
g11
g17
sg13
VUmpush
p174
sg15
I400
sg16
g17
sg18
g17
sg19
V/usr/share/fonts/truetype/tlwg/Umpush.ttf
p175
sg21
g22
sbag1
(g8
g3
NtRp176
(dp177
g11
g17
sg13
VNoto Sans Lao UI
p178
sg15
I700
sg16
g17
sg18
g17
sg19
V/usr/share/fonts/truetype/noto/NotoSansLaoUI-Bold.ttf
p179
sg21
g22
sbag1
(g8
g3
NtRp180
(dp181
g11
g17
sg13
VGaruda
p182
sg15
I700
sg16
g17
sg18
g17
sg19
V/usr/share/fonts/truetype/tlwg/Garuda-Bold.ttf
p183
sg21
g22
sbag1
(g8
g3
NtRp184
(dp185
g11
g17
sg13
VNoto Sans Gujarati
p186
sg15
I700
sg16
g17
sg18
g17
sg19
V/usr/share/fonts/truetype/noto/NotoSansGujarati-Bold.ttf
p187
sg21
g22
sbag1
(g8
g3
NtRp188
(dp189
g11
g17
sg13
VSTIXIntegralsUpD
p190
sg15
I400
sg16
g17
sg18
g17
sg19
V/usr/share/fonts/opentype/stix/STIXIntegralsUpD-Regular.otf
p191
sg21
g22
sbag1
(g8
g3
NtRp192
(dp193
g11
g17
sg13
VNoto Sans Tamil UI
p194
sg15
I700
sg16
g17
sg18
g17
sg19
V/usr/share/fonts/truetype/noto/NotoSansTamilUI-Bold.ttf
p195
sg21
g22
sbag1
(g8
g3
NtRp196
(dp197
g11
g17
sg13
VKacstLetter
p198
sg15
I400
sg16
g17
sg18
g17
sg19
V/usr/share/fonts/truetype/kacst/KacstLetter.ttf
p199
sg21
g22
sbag1
(g8
g3
NtRp200
(dp201
g11
g17
sg13
VNoto Serif Georgian
p202
sg15
I400
sg16
g17
sg18
g17
sg19
V/usr/share/fonts/truetype/noto/NotoSerifGeorgian-Regular.ttf
p203
sg21
g22
sbag1
(g8
g3
NtRp204
(dp205
g11
g17
sg13
VNoto Sans Thai UI
p206
sg15
I400
sg16
g17
sg18
g17
sg19
V/usr/share/fonts/truetype/noto/NotoSansThaiUI-Regular.ttf
p207
sg21
g22
sbag1
(g8
g3
NtRp208
(dp209
g11
g17
sg13
VKacstScreen
p210
sg15
I400
sg16
g17
sg18
g17
sg19
V/usr/share/fonts/truetype/kacst/KacstScreen.ttf
p211
sg21
g22
sbag1
(g8
g3
NtRp212
(dp213
g11
g17
sg13
VNoto Sans Telugu
p214
sg15
I400
sg16
g17
sg18
g17
sg19
V/usr/share/fonts/truetype/noto/NotoSansTelugu-Regular.ttf
p215
sg21
g22
sbag1
(g8
g3
NtRp216
(dp217
g11
g17
sg13
VSTIXIntegralsUpSm
p218
sg15
I400
sg16
g17
sg18
g17
sg19
V/usr/share/fonts/opentype/stix/STIXIntegralsUpSm-Regular.otf
p219
sg21
g22
sbag1
(g8
g3
NtRp220
(dp221
g11
g33
sg13
VNorasi
p222
sg15
I400
sg16
g17
sg18
g17
sg19
V/usr/share/fonts/truetype/tlwg/Norasi-Oblique.ttf
p223
sg21
g22
sbag1
(g8
g3
NtRp224
(dp225
g11
g17
sg13
VNoto Sans Ethiopic
p226
sg15
I400
sg16
g17
sg18
g17
sg19
V/usr/share/fonts/truetype/noto/NotoSansEthiopic-Regular.ttf
p227
sg21
g22
sbag1
(g8
g3
NtRp228
(dp229
g11
g17
sg13
VNoto Sans Gujarati UI
p230
sg15
I700
sg16
g17
sg18
g17
sg19
V/usr/share/fonts/truetype/noto/NotoSansGujaratiUI-Bold.ttf
p231
sg21
g22
sbag1
(g8
g3
NtRp232
(dp233
g11
g17
sg13
VNoto Sans Ethiopic
p234
sg15
I700
sg16
g17
sg18
g17
sg19
V/usr/share/fonts/truetype/noto/NotoSansEthiopic-Bold.ttf
p235
sg21
g22
sbag1
(g8
g3
NtRp236
(dp237
g11
g12
sg13
VUbuntu
p238
sg15
I700
sg16
g17
sg18
g17
sg19
V/usr/share/fonts/truetype/ubuntu-font-family/Ubuntu-BI.ttf
p239
sg21
g22
sbag1
(g8
g3
NtRp240
(dp241
g11
g17
sg13
VLoma
p242
sg15
I700
sg16
g17
sg18
g17
sg19
V/usr/share/fonts/truetype/tlwg/Loma-Bold.ttf
p243
sg21
g22
sbag1
(g8
g3
NtRp244
(dp245
g11
g17
sg13
VTakaoPGothic
p246
sg15
I400
sg16
g17
sg18
g17
sg19
V/usr/share/fonts/truetype/fonts-japanese-gothic.ttf
p247
sg21
g22
sbag1
(g8
g3
NtRp248
(dp249
g11
g17
sg13
VNoto Serif Gujarati
p250
sg15
I400
sg16
g17
sg18
g17
sg19
V/usr/share/fonts/truetype/noto/NotoSerifGujarati-Regular.ttf
p251
sg21
g22
sbag1
(g8
g3
NtRp252
(dp253
g11
g17
sg13
VDejaVu Serif
p254
sg15
I400
sg16
g17
sg18
g17
sg19
V/usr/share/fonts/truetype/dejavu/DejaVuSerif.ttf
p255
sg21
g22
sbag1
(g8
g3
NtRp256
(dp257
g11
g17
sg13
VNoto Serif Thai
p258
sg15
I700
sg16
g17
sg18
g17
sg19
V/usr/share/fonts/truetype/noto/NotoSerifThai-Bold.ttf
p259
sg21
g22
sbag1
(g8
g3
NtRp260
(dp261
g11
g33
sg13
VUmpush
p262
sg15
I200
sg16
g17
sg18
g17
sg19
V/usr/share/fonts/truetype/tlwg/Umpush-LightOblique.ttf
p263
sg21
g22
sbag1
(g8
g3
NtRp264
(dp265
g11
g17
sg13
VFreeSerif
p266
sg15
I700
sg16
g17
sg18
g17
sg19
V/usr/share/fonts/truetype/freefont/FreeSerifBold.ttf
p267
sg21
g22
sbag1
(g8
g3
NtRp268
(dp269
g11
g33
sg13
VFreeMono
p270
sg15
I700
sg16
g17
sg18
g17
sg19
V/usr/share/fonts/truetype/freefont/FreeMonoBoldOblique.ttf
p271
sg21
g22
sbag1
(g8
g3
NtRp272
(dp273
g11
g17
sg13
VTlwg Typo
p274
sg15
I400
sg16
g17
sg18
g17
sg19
V/usr/share/fonts/truetype/tlwg/TlwgTypo.ttf
p275
sg21
g22
sbag1
(g8
g3
NtRp276
(dp277
g11
g17
sg13
VNoto Sans UI
p278
sg15
I700
sg16
g17
sg18
g17
sg19
V/usr/share/fonts/truetype/noto/NotoSansUI-Bold.ttf
p279
sg21
g22
sbag1
(g8
g3
NtRp280
(dp281
g11
g12
sg13
VLiberation Serif
p282
sg15
I400
sg16
g17
sg18
g17
sg19
V/usr/share/fonts/truetype/liberation/LiberationSerif-Italic.ttf
p283
sg21
g22
sbag1
(g8
g3
NtRp284
(dp285
g11
g17
sg13
VLKLUG
p286
sg15
I400
sg16
g17
sg18
g17
sg19
V/usr/share/fonts/truetype/sinhala/lklug.ttf
p287
sg21
g22
sbag1
(g8
g3
NtRp288
(dp289
g11
g12
sg13
VNoto Serif
p290
sg15
I400
sg16
g17
sg18
g17
sg19
V/usr/share/fonts/truetype/noto/NotoSerif-Italic.ttf
p291
sg21
g22
sbag1
(g8
g3
NtRp292
(dp293
g11
g17
sg13
VLiberation Sans Narrow
p294
sg15
I700
sg16
Vcondensed
p295
sg18
g17
sg19
V/usr/share/fonts/truetype/liberation/LiberationSansNarrow-Bold.ttf
p296
sg21
g22
sbag1
(g8
g3
NtRp297
(dp298
g11
g33
sg13
VFreeSans
p299
sg15
I400
sg16
g17
sg18
g17
sg19
V/usr/share/fonts/truetype/freefont/FreeSansOblique.ttf
p300
sg21
g22
sbag1
(g8
g3
NtRp301
(dp302
g11
g12
sg13
VSTIXGeneral
p303
sg15
I400
sg16
g17
sg18
g17
sg19
V/usr/share/fonts/opentype/stix/STIXGeneral-Italic.otf
p304
sg21
g22
sbag1
(g8
g3
NtRp305
(dp306
g11
g17
sg13
VNoto Serif Bengali
p307
sg15
I400
sg16
g17
sg18
g17
sg19
V/usr/share/fonts/truetype/noto/NotoSerifBengali-Regular.ttf
p308
sg21
g22
sbag1
(g8
g3
NtRp309
(dp310
g11
g17
sg13
VNoto Sans Thai UI
p311
sg15
I700
sg16
g17
sg18
g17
sg19
V/usr/share/fonts/truetype/noto/NotoSansThaiUI-Bold.ttf
p312
sg21
g22
sbag1
(g8
g3
NtRp313
(dp314
g11
g17
sg13
VLiberation Sans
p315
sg15
I700
sg16
g17
sg18
g17
sg19
V/usr/share/fonts/truetype/liberation/LiberationSans-Bold.ttf
p316
sg21
g22
sbag1
(g8
g3
NtRp317
(dp318
g11
g17
sg13
VDejaVu Sans Mono
p319
sg15
I700
sg16
g17
sg18
g17
sg19
V/usr/share/fonts/truetype/dejavu/DejaVuSansMono-Bold.ttf
p320
sg21
g22
sbag1
(g8
g3
NtRp321
(dp322
g11
g33
sg13
VTlwg Typo
p323
sg15
I700
sg16
g17
sg18
g17
sg19
V/usr/share/fonts/truetype/tlwg/TlwgTypo-BoldOblique.ttf
p324
sg21
g22
sbag1
(g8
g3
NtRp325
(dp326
g11
g17
sg13
VLaksaman
p327
sg15
I400
sg16
g17
sg18
g17
sg19
V/usr/share/fonts/truetype/tlwg/Laksaman.ttf
p328
sg21
g22
sbag1
(g8
g3
NtRp329
(dp330
g11
g17
sg13
VNoto Sans Gujarati UI
p331
sg15
I400
sg16
g17
sg18
g17
sg19
V/usr/share/fonts/truetype/noto/NotoSansGujaratiUI-Regular.ttf
p332
sg21
g22
sbag1
(g8
g3
NtRp333
(dp334
g11
g17
sg13
VLiberation Mono
p335
sg15
I400
sg16
g17
sg18
g17
sg19
V/usr/share/fonts/truetype/liberation/LiberationMono-Regular.ttf
p336
sg21
g22
sbag1
(g8
g3
NtRp337
(dp338
g11
g17
sg13
VNoto Sans Khmer
p339
sg15
I700
sg16
g17
sg18
g17
sg19
V/usr/share/fonts/truetype/noto/NotoSansKhmer-Bold.ttf
p340
sg21
g22
sbag1
(g8
g3
NtRp341
(dp342
g11
g12
sg13
VNoto Sans
p343
sg15
I400
sg16
g17
sg18
g17
sg19
V/usr/share/fonts/truetype/noto/NotoSans-Italic.ttf
p344
sg21
g22
sbag1
(g8
g3
NtRp345
(dp346
g11
g17
sg13
VNoto Sans Gurmukhi
p347
sg15
I700
sg16
g17
sg18
g17
sg19
V/usr/share/fonts/truetype/noto/NotoSansGurmukhi-Bold.ttf
p348
sg21
g22
sbag1
(g8
g3
NtRp349
(dp350
g11
g17
sg13
VNoto Sans Bengali UI
p351
sg15
I400
sg16
g17
sg18
g17
sg19
V/usr/share/fonts/truetype/noto/NotoSansBengaliUI-Regular.ttf
p352
sg21
g22
sbag1
(g8
g3
NtRp353
(dp354
g11
g17
sg13
VSTIXVariants
p355
sg15
I400
sg16
g17
sg18
g17
sg19
V/usr/share/fonts/opentype/stix/STIXVariants-Regular.otf
p356
sg21
g22
sbag1
(g8
g3
NtRp357
(dp358
g11
g17
sg13
VUbuntu
p359
sg15
I400
sg16
g17
sg18
g17
sg19
V/usr/share/fonts/truetype/ubuntu-font-family/Ubuntu-R.ttf
p360
sg21
g22
sbag1
(g8
g3
NtRp361
(dp362
g11
g17
sg13
VNoto Sans Georgian
p363
sg15
I400
sg16
g17
sg18
g17
sg19
V/usr/share/fonts/truetype/noto/NotoSansGeorgian-Regular.ttf
p364
sg21
g22
sbag1
(g8
g3
NtRp365
(dp366
g11
g17
sg13
VGaruda
p367
sg15
I400
sg16
g17
sg18
g17
sg19
V/usr/share/fonts/truetype/tlwg/Garuda.ttf
p368
sg21
g22
sbag1
(g8
g3
NtRp369
(dp370
g11
g33
sg13
VTlwg Mono
p371
sg15
I400
sg16
g17
sg18
g17
sg19
V/usr/share/fonts/truetype/tlwg/TlwgMono-Oblique.ttf
p372
sg21
g22
sbag1
(g8
g3
NtRp373
(dp374
g11
g17
sg13
VNanumBarunGothic
p375
sg15
I700
sg16
g17
sg18
g17
sg19
V/usr/share/fonts/truetype/nanum/NanumBarunGothicBold.ttf
p376
sg21
g22
sbag1
(g8
g3
NtRp377
(dp378
g11
g17
sg13
VTlwg Typist
p379
sg15
I400
sg16
g17
sg18
g17
sg19
V/usr/share/fonts/truetype/tlwg/TlwgTypist.ttf
p380
sg21
g22
sbag1
(g8
g3
NtRp381
(dp382
g11
g17
sg13
VNanumGothic
p383
sg15
I400
sg16
g17
sg18
g17
sg19
V/usr/share/fonts/truetype/nanum/NanumGothic.ttf
p384
sg21
g22
sbag1
(g8
g3
NtRp385
(dp386
g11
g17
sg13
VNoto Serif Lao
p387
sg15
I400
sg16
g17
sg18
g17
sg19
V/usr/share/fonts/truetype/noto/NotoSerifLao-Regular.ttf
p388
sg21
g22
sbag1
(g8
g3
NtRp389
(dp390
g11
g17
sg13
Vmry_KacstQurn
p391
sg15
I400
sg16
g17
sg18
g17
sg19
V/usr/share/fonts/truetype/kacst/mry_KacstQurn.ttf
p392
sg21
g22
sbag1
(g8
g3
NtRp393
(dp394
g11
g17
sg13
VNoto Sans Khmer
p395
sg15
I400
sg16
g17
sg18
g17
sg19
V/usr/share/fonts/truetype/noto/NotoSansKhmer-Regular.ttf
p396
sg21
g22
sbag1
(g8
g3
NtRp397
(dp398
g11
g17
sg13
VNoto Sans Oriya
p399
sg15
I700
sg16
g17
sg18
g17
sg19
V/usr/share/fonts/truetype/noto/NotoSansOriya-Bold.ttf
p400
sg21
g22
sbag1
(g8
g3
NtRp401
(dp402
g11
g12
sg13
VLiberation Serif
p403
sg15
I700
sg16
g17
sg18
g17
sg19
V/usr/share/fonts/truetype/liberation/LiberationSerif-BoldItalic.ttf
p404
sg21
g22
sbag1
(g8
g3
NtRp405
(dp406
g11
g17
sg13
VTlwg Mono
p407
sg15
I700
sg16
g17
sg18
g17
sg19
V/usr/share/fonts/truetype/tlwg/TlwgMono-Bold.ttf
p408
sg21
g22
sbag1
(g8
g3
NtRp409
(dp410
g11
g12
sg13
VLiberation Mono
p411
sg15
I400
sg16
g17
sg18
g17
sg19
V/usr/share/fonts/truetype/liberation/LiberationMono-Italic.ttf
p412
sg21
g22
sbag1
(g8
g3
NtRp413
(dp414
g11
g17
sg13
VTibetan Machine Uni
p415
sg15
I400
sg16
g17
sg18
g17
sg19
V/usr/share/fonts/truetype/tibetan-machine/TibetanMachineUni.ttf
p416
sg21
g22
sbag1
(g8
g3
NtRp417
(dp418
g11
g17
sg13
VNoto Sans Myanmar
p419
sg15
I400
sg16
g17
sg18
g17
sg19
V/usr/share/fonts/truetype/noto/NotoSansMyanmar-Regular.ttf
p420
sg21
g22
sbag1
(g8
g3
NtRp421
(dp422
g11
g17
sg13
VNoto Serif
p423
sg15
I700
sg16
g17
sg18
g17
sg19
V/usr/share/fonts/truetype/noto/NotoSerif-Bold.ttf
p424
sg21
g22
sbag1
(g8
g3
NtRp425
(dp426
g11
g17
sg13
VLohit Punjabi
p427
sg15
I400
sg16
g17
sg18
g17
sg19
V/usr/share/fonts/truetype/lohit-punjabi/Lohit-Punjabi.ttf
p428
sg21
g22
sbag1
(g8
g3
NtRp429
(dp430
g11
g17
sg13
VSTIXSizeFourSym
p431
sg15
I400
sg16
g17
sg18
g17
sg19
V/usr/share/fonts/opentype/stix/STIXSizeFourSym-Regular.otf
p432
sg21
g22
sbag1
(g8
g3
NtRp433
(dp434
g11
g17
sg13
VNoto Sans Myanmar UI
p435
sg15
I400
sg16
g17
sg18
g17
sg19
V/usr/share/fonts/truetype/noto/NotoSansMyanmarUI-Regular.ttf
p436
sg21
g22
sbag1
(g8
g3
NtRp437
(dp438
g11
g12
sg13
VNoto Sans UI
p439
sg15
I400
sg16
g17
sg18
g17
sg19
V/usr/share/fonts/truetype/noto/NotoSansUI-Italic.ttf
p440
sg21
g22
sbag1
(g8
g3
NtRp441
(dp442
g11
g17
sg13
VPhetsarath OT
p443
sg15
I400
sg16
g17
sg18
g17
sg19
V/usr/share/fonts/truetype/lao/Phetsarath_OT.ttf
p444
sg21
g22
sbag1
(g8
g3
NtRp445
(dp446
g11
g17
sg13
VLiberation Serif
p447
sg15
I700
sg16
g17
sg18
g17
sg19
V/usr/share/fonts/truetype/liberation/LiberationSerif-Bold.ttf
p448
sg21
g22
sbag1
(g8
g3
NtRp449
(dp450
g11
g12
sg13
VLiberation Sans
p451
sg15
I400
sg16
g17
sg18
g17
sg19
V/usr/share/fonts/truetype/liberation/LiberationSans-Italic.ttf
p452
sg21
g22
sbag1
(g8
g3
NtRp453
(dp454
g11
g12
sg13
VSTIXGeneral
p455
sg15
I700
sg16
g17
sg18
g17
sg19
V/usr/share/fonts/opentype/stix/STIXGeneral-BoldItalic.otf
p456
sg21
g22
sbag1
(g8
g3
NtRp457
(dp458
g11
g17
sg13
VNoto Sans Myanmar UI
p459
sg15
I700
sg16
g17
sg18
g17
sg19
V/usr/share/fonts/truetype/noto/NotoSansMyanmarUI-Bold.ttf
p460
sg21
g22
sbag1
(g8
g3
NtRp461
(dp462
g11
g17
sg13
VNanumMyeongjo
p463
sg15
I700
sg16
g17
sg18
g17
sg19
V/usr/share/fonts/truetype/nanum/NanumMyeongjoBold.ttf
p464
sg21
g22
sbag1
(g8
g3
NtRp465
(dp466
g11
g17
sg13
VWaree
p467
sg15
I700
sg16
g17
sg18
g17
sg19
V/usr/share/fonts/truetype/tlwg/Waree-Bold.ttf
p468
sg21
g22
sbag1
(g8
g3
NtRp469
(dp470
g11
g17
sg13
VNoto Serif Bengali
p471
sg15
I700
sg16
g17
sg18
g17
sg19
V/usr/share/fonts/truetype/noto/NotoSerifBengali-Bold.ttf
p472
sg21
g22
sbag1
(g8
g3
NtRp473
(dp474
g11
g17
sg13
VSTIXIntegralsUp
p475
sg15
I700
sg16
g17
sg18
g17
sg19
V/usr/share/fonts/opentype/stix/STIXIntegralsUp-Bold.otf
p476
sg21
g22
sbag1
(g8
g3
NtRp477
(dp478
g11
g17
sg13
VNoto Serif Gujarati
p479
sg15
I700
sg16
g17
sg18
g17
sg19
V/usr/share/fonts/truetype/noto/NotoSerifGujarati-Bold.ttf
p480
sg21
g22
sbag1
(g8
g3
NtRp481
(dp482
g11
g17
sg13
VSTIXSizeTwoSym
p483
sg15
I400
sg16
g17
sg18
g17
sg19
V/usr/share/fonts/opentype/stix/STIXSizeTwoSym-Regular.otf
p484
sg21
g22
sbag1
(g8
g3
NtRp485
(dp486
g11
g17
sg13
VNoto Serif Kannada
p487
sg15
I700
sg16
g17
sg18
g17
sg19
V/usr/share/fonts/truetype/noto/NotoSerifKannada-Bold.ttf
p488
sg21
g22
sbag1
(g8
g3
NtRp489
(dp490
g11
g17
sg13
VKacstDigital
p491
sg15
I400
sg16
g17
sg18
g17
sg19
V/usr/share/fonts/truetype/kacst/KacstDigital.ttf
p492
sg21
g22
sbag1
(g8
g3
NtRp493
(dp494
g11
g17
sg13
VNoto Serif Tamil
p495
sg15
I400
sg16
g17
sg18
g17
sg19
V/usr/share/fonts/truetype/noto/NotoSerifTamil-Regular.ttf
p496
sg21
g22
sbag1
(g8
g3
NtRp497
(dp498
g11
g17
sg13
VNoto Naskh Arabic
p499
sg15
I400
sg16
g17
sg18
g17
sg19
V/usr/share/fonts/truetype/noto/NotoNaskhArabic-Regular.ttf
p500
sg21
g22
sbag1
(g8
g3
NtRp501
(dp502
g11
g17
sg13
VLiberation Sans
p503
sg15
I400
sg16
g17
sg18
g17
sg19
V/usr/share/fonts/truetype/liberation/LiberationSans-Regular.ttf
p504
sg21
g22
sbag1
(g8
g3
NtRp505
(dp506
g11
g17
sg13
VNoto Sans Bengali
p507
sg15
I400
sg16
g17
sg18
g17
sg19
V/usr/share/fonts/truetype/noto/NotoSansBengali-Regular.ttf
p508
sg21
g22
sbag1
(g8
g3
NtRp509
(dp510
g11
g17
sg13
VKacstOffice
p511
sg15
I400
sg16
g17
sg18
g17
sg19
V/usr/share/fonts/truetype/kacst/KacstOffice.ttf
p512
sg21
g22
sbag1
(g8
g3
NtRp513
(dp514
g11
g17
sg13
VNoto Sans Telugu UI
p515
sg15
I700
sg16
g17
sg18
g17
sg19
V/usr/share/fonts/truetype/noto/NotoSansTeluguUI-Bold.ttf
p516
sg21
g22
sbag1
(g8
g3
NtRp517
(dp518
g11
g17
sg13
VNoto Sans Hebrew
p519
sg15
I400
sg16
g17
sg18
g17
sg19
V/usr/share/fonts/truetype/noto/NotoSansHebrew-Regular.ttf
p520
sg21
g22
sbag1
(g8
g3
NtRp521
(dp522
g11
g17
sg13
VNoto Serif Lao
p523
sg15
I700
sg16
g17
sg18
g17
sg19
V/usr/share/fonts/truetype/noto/NotoSerifLao-Bold.ttf
p524
sg21
g22
sbag1
(g8
g3
NtRp525
(dp526
g11
g12
sg13
VNoto Sans
p527
sg15
I700
sg16
g17
sg18
g17
sg19
V/usr/share/fonts/truetype/noto/NotoSans-BoldItalic.ttf
p528
sg21
g22
sbag1
(g8
g3
NtRp529
(dp530
g11
g17
sg13
VNoto Kufi Arabic
p531
sg15
I400
sg16
g17
sg18
g17
sg19
V/usr/share/fonts/truetype/noto/NotoKufiArabic-Regular.ttf
p532
sg21
g22
sbag1
(g8
g3
NtRp533
(dp534
g11
g17
sg13
VSTIXSizeFiveSym
p535
sg15
I400
sg16
g17
sg18
g17
sg19
V/usr/share/fonts/opentype/stix/STIXSizeFiveSym-Regular.otf
p536
sg21
g22
sbag1
(g8
g3
NtRp537
(dp538
g11
g12
sg13
VNoto Sans UI
p539
sg15
I700
sg16
g17
sg18
g17
sg19
V/usr/share/fonts/truetype/noto/NotoSansUI-BoldItalic.ttf
p540
sg21
g22
sbag1
(g8
g3
NtRp541
(dp542
g11
g17
sg13
VUbuntu Mono
p543
sg15
I400
sg16
g17
sg18
g17
sg19
V/usr/share/fonts/truetype/ubuntu-font-family/UbuntuMono-R.ttf
p544
sg21
g22
sbag1
(g8
g3
NtRp545
(dp546
g11
g17
sg13
VNoto Sans Malayalam UI
p547
sg15
I700
sg16
g17
sg18
g17
sg19
V/usr/share/fonts/truetype/noto/NotoSansMalayalamUI-Bold.ttf
p548
sg21
g22
sbag1
(g8
g3
NtRp549
(dp550
g11
g33
sg13
VLoma
p551
sg15
I400
sg16
g17
sg18
g17
sg19
V/usr/share/fonts/truetype/tlwg/Loma-Oblique.ttf
p552
sg21
g22
sbag1
(g8
g3
NtRp553
(dp554
g11
g17
sg13
VNorasi
p555
sg15
I700
sg16
g17
sg18
g17
sg19
V/usr/share/fonts/truetype/tlwg/Norasi-Bold.ttf
p556
sg21
g22
sbag1
(g8
g3
NtRp557
(dp558
g11
g12
sg13
VNorasi
p559
sg15
I700
sg16
g17
sg18
g17
sg19
V/usr/share/fonts/truetype/tlwg/Norasi-BoldItalic.ttf
p560
sg21
g22
sbag1
(g8
g3
NtRp561
(dp562
g11
g17
sg13
VLaksaman
p563
sg15
I700
sg16
g17
sg18
g17
sg19
V/usr/share/fonts/truetype/tlwg/Laksaman-Bold.ttf
p564
sg21
g22
sbag1
(g8
g3
NtRp565
(dp566
g11
g17
sg13
VNoto Sans Myanmar
p567
sg15
I700
sg16
g17
sg18
g17
sg19
V/usr/share/fonts/truetype/noto/NotoSansMyanmar-Bold.ttf
p568
sg21
g22
sbag1
(g8
g3
NtRp569
(dp570
g11
g17
sg13
VUmpush
p571
sg15
I700
sg16
g17
sg18
g17
sg19
V/usr/share/fonts/truetype/tlwg/Umpush-Bold.ttf
p572
sg21
g22
sbag1
(g8
g3
NtRp573
(dp574
g11
g17
sg13
VNoto Sans Thai
p575
sg15
I400
sg16
g17
sg18
g17
sg19
V/usr/share/fonts/truetype/noto/NotoSansThai-Regular.ttf
p576
sg21
g22
sbag1
(g8
g3
NtRp577
(dp578
g11
g12
sg13
VLiberation Sans
p579
sg15
I700
sg16
g17
sg18
g17
sg19
V/usr/share/fonts/truetype/liberation/LiberationSans-BoldItalic.ttf
p580
sg21
g22
sbag1
(g8
g3
NtRp581
(dp582
g11
g33
sg13
VKinnari
p583
sg15
I700
sg16
g17
sg18
g17
sg19
V/usr/share/fonts/truetype/tlwg/Kinnari-BoldOblique.ttf
p584
sg21
g22
sbag1
(g8
g3
NtRp585
(dp586
g11
g17
sg13
VNoto Naskh Arabic UI
p587
sg15
I700
sg16
g17
sg18
g17
sg19
V/usr/share/fonts/truetype/noto/NotoNaskhArabicUI-Bold.ttf
p588
sg21
g22
sbag1
(g8
g3
NtRp589
(dp590
g11
g17
sg13
VKacstNaskh
p591
sg15
I400
sg16
g17
sg18
g17
sg19
V/usr/share/fonts/truetype/kacst/KacstNaskh.ttf
p592
sg21
g22
sbag1
(g8
g3
NtRp593
(dp594
g11
g17
sg13
VNoto Sans Gurmukhi UI
p595
sg15
I400
sg16
g17
sg18
g17
sg19
V/usr/share/fonts/truetype/noto/NotoSansGurmukhiUI-Regular.ttf
p596
sg21
g22
sbag1
(g8
g3
NtRp597
(dp598
g11
g17
sg13
VNoto Sans Armenian
p599
sg15
I700
sg16
g17
sg18
g17
sg19
V/usr/share/fonts/truetype/noto/NotoSansArmenian-Bold.ttf
p600
sg21
g22
sbag1
(g8
g3
NtRp601
(dp602
g11
g33
sg13
VNorasi
p603
sg15
I700
sg16
g17
sg18
g17
sg19
V/usr/share/fonts/truetype/tlwg/Norasi-BoldOblique.ttf
p604
sg21
g22
sbag1
(g8
g3
NtRp605
(dp606
g11
g17
sg13
VNoto Sans Thaana
p607
sg15
I400
sg16
g17
sg18
g17
sg19
V/usr/share/fonts/truetype/noto/NotoSansThaana-Regular.ttf
p608
sg21
g22
sbag1
(g8
g3
NtRp609
(dp610
g11
g12
sg13
VKinnari
p611
sg15
I700
sg16
g17
sg18
g17
sg19
V/usr/share/fonts/truetype/tlwg/Kinnari-BoldItalic.ttf
p612
sg21
g22
sbag1
(g8
g3
NtRp613
(dp614
g11
g12
sg13
VFreeSerif
p615
sg15
I400
sg16
g17
sg18
g17
sg19
V/usr/share/fonts/truetype/freefont/FreeSerifItalic.ttf
p616
sg21
g22
sbag1
(g8
g3
NtRp617
(dp618
g11
g17
sg13
VNoto Serif Armenian
p619
sg15
I700
sg16
g17
sg18
g17
sg19
V/usr/share/fonts/truetype/noto/NotoSerifArmenian-Bold.ttf
p620
sg21
g22
sbag1
(g8
g3
NtRp621
(dp622
g11
g17
sg13
VSawasdee
p623
sg15
I400
sg16
g17
sg18
g17
sg19
V/usr/share/fonts/truetype/tlwg/Sawasdee.ttf
p624
sg21
g22
sbag1
(g8
g3
NtRp625
(dp626
g11
g17
sg13
VSTIXSizeThreeSym
p627
sg15
I400
sg16
g17
sg18
g17
sg19
V/usr/share/fonts/opentype/stix/STIXSizeThreeSym-Regular.otf
p628
sg21
g22
sbag1
(g8
g3
NtRp629
(dp630
g11
g17
sg13
VNoto Sans Thaana
p631
sg15
I700
sg16
g17
sg18
g17
sg19
V/usr/share/fonts/truetype/noto/NotoSansThaana-Bold.ttf
p632
sg21
g22
sbag1
(g8
g3
NtRp633
(dp634
g11
g17
sg13
VNoto Sans Tibetan
p635
sg15
I400
sg16
g17
sg18
g17
sg19
V/usr/share/fonts/truetype/noto/NotoSansTibetan-Regular.ttf
p636
sg21
g22
sbag1
(g8
g3
NtRp637
(dp638
g11
g17
sg13
VFreeSans
p639
sg15
I700
sg16
g17
sg18
g17
sg19
V/usr/share/fonts/truetype/freefont/FreeSansBold.ttf
p640
sg21
g22
sbag1
(g8
g3
NtRp641
(dp642
g11
g17
sg13
VLiberation Mono
p643
sg15
I700
sg16
g17
sg18
g17
sg19
V/usr/share/fonts/truetype/liberation/LiberationMono-Bold.ttf
p644
sg21
g22
sbag1
(g8
g3
NtRp645
(dp646
g11
g33
sg13
VTlwg Typist
p647
sg15
I700
sg16
g17
sg18
g17
sg19
V/usr/share/fonts/truetype/tlwg/TlwgTypist-BoldOblique.ttf
p648
sg21
g22
sbag1
(g8
g3
NtRp649
(dp650
g11
g17
sg13
VNoto Serif Malayalam
p651
sg15
I400
sg16
g17
sg18
g17
sg19
V/usr/share/fonts/truetype/noto/NotoSerifMalayalam-Regular.ttf
p652
sg21
g22
sbag1
(g8
g3
NtRp653
(dp654
g11
g17
sg13
VNoto Serif Kannada
p655
sg15
I400
sg16
g17
sg18
g17
sg19
V/usr/share/fonts/truetype/noto/NotoSerifKannada-Regular.ttf
p656
sg21
g22
sbag1
(g8
g3
NtRp657
(dp658
g11
g17
sg13
VLiberation Serif
p659
sg15
I400
sg16
g17
sg18
g17
sg19
V/usr/share/fonts/truetype/liberation/LiberationSerif-Regular.ttf
p660
sg21
g22
sbag1
(g8
g3
NtRp661
(dp662
g11
g17
sg13
VPurisa
p663
sg15
I700
sg16
g17
sg18
g17
sg19
V/usr/share/fonts/truetype/tlwg/Purisa-Bold.ttf
p664
sg21
g22
sbag1
(g8
g3
NtRp665
(dp666
g11
g17
sg13
VNoto Sans Bengali UI
p667
sg15
I700
sg16
g17
sg18
g17
sg19
V/usr/share/fonts/truetype/noto/NotoSansBengaliUI-Bold.ttf
p668
sg21
g22
sbag1
(g8
g3
NtRp669
(dp670
g11
g17
sg13
VNoto Sans Kannada
p671
sg15
I700
sg16
g17
sg18
g17
sg19
V/usr/share/fonts/truetype/noto/NotoSansKannada-Bold.ttf
p672
sg21
g22
sbag1
(g8
g3
NtRp673
(dp674
g11
g17
sg13
VNoto Sans Khmer UI
p675
sg15
I700
sg16
g17
sg18
g17
sg19
V/usr/share/fonts/truetype/noto/NotoSansKhmerUI-Bold.ttf
p676
sg21
g22
sbag1
(g8
g3
NtRp677
(dp678
g11
g17
sg13
VTlwg Typist
p679
sg15
I700
sg16
g17
sg18
g17
sg19
V/usr/share/fonts/truetype/tlwg/TlwgTypist-Bold.ttf
p680
sg21
g22
sbag1
(g8
g3
NtRp681
(dp682
g11
g17
sg13
VNoto Sans Devanagari
p683
sg15
I700
sg16
g17
sg18
g17
sg19
V/usr/share/fonts/truetype/noto/NotoSansDevanagari-Bold.ttf
p684
sg21
g22
sbag1
(g8
g3
NtRp685
(dp686
g11
g17
sg13
VNoto Naskh Arabic UI
p687
sg15
I400
sg16
g17
sg18
g17
sg19
V/usr/share/fonts/truetype/noto/NotoNaskhArabicUI-Regular.ttf
p688
sg21
g22
sbag1
(g8
g3
NtRp689
(dp690
g11
g17
sg13
VNoto Sans Armenian
p691
sg15
I400
sg16
g17
sg18
g17
sg19
V/usr/share/fonts/truetype/noto/NotoSansArmenian-Regular.ttf
p692
sg21
g22
sbag1
(g8
g3
NtRp693
(dp694
g11
g17
sg13
VKacstBook
p695
sg15
I400
sg16
g17
sg18
g17
sg19
V/usr/share/fonts/truetype/kacst/KacstBook.ttf
p696
sg21
g22
sbag1
(g8
g3
NtRp697
(dp698
g11
g17
sg13
VKacstFarsi
p699
sg15
I400
sg16
g17
sg18
g17
sg19
V/usr/share/fonts/truetype/kacst/KacstFarsi.ttf
p700
sg21
g22
sbag1
(g8
g3
NtRp701
(dp702
g11
g17
sg13
VKacstPoster
p703
sg15
I400
sg16
g17
sg18
g17
sg19
V/usr/share/fonts/truetype/kacst/KacstPoster.ttf
p704
sg21
g22
sbag1
(g8
g3
NtRp705
(dp706
g11
g17
sg13
VPurisa
p707
sg15
I400
sg16
g17
sg18
g17
sg19
V/usr/share/fonts/truetype/tlwg/Purisa.ttf
p708
sg21
g22
sbag1
(g8
g3
NtRp709
(dp710
g11
g17
sg13
VNoto Sans Lao
p711
sg15
I400
sg16
g17
sg18
g17
sg19
V/usr/share/fonts/truetype/noto/NotoSansLao-Regular.ttf
p712
sg21
g22
sbag1
(g8
g3
NtRp713
(dp714
g11
g17
sg13
VSTIXSizeOneSym
p715
sg15
I700
sg16
g17
sg18
g17
sg19
V/usr/share/fonts/opentype/stix/STIXSizeOneSym-Bold.otf
p716
sg21
g22
sbag1
(g8
g3
NtRp717
(dp718
g11
g17
sg13
VNanumMyeongjo
p719
sg15
I400
sg16
g17
sg18
g17
sg19
V/usr/share/fonts/truetype/nanum/NanumMyeongjo.ttf
p720
sg21
g22
sbag1
(g8
g3
NtRp721
(dp722
g11
g17
sg13
VNoto Sans Sinhala
p723
sg15
I400
sg16
g17
sg18
g17
sg19
V/usr/share/fonts/truetype/noto/NotoSansSinhala-Regular.ttf
p724
sg21
g22
sbag1
(g8
g3
NtRp725
(dp726
g11
g12
sg13
VUbuntu
p727
sg15
I200
sg16
g17
sg18
g17
sg19
V/usr/share/fonts/truetype/ubuntu-font-family/Ubuntu-LI.ttf
p728
sg21
g22
sbag1
(g8
g3
NtRp729
(dp730
g11
g17
sg13
VNoto Sans Kannada
p731
sg15
I400
sg16
g17
sg18
g17
sg19
V/usr/share/fonts/truetype/noto/NotoSansKannada-Regular.ttf
p732
sg21
g22
sbag1
(g8
g3
NtRp733
(dp734
g11
g17
sg13
VNoto Sans Lao UI
p735
sg15
I400
sg16
g17
sg18
g17
sg19
V/usr/share/fonts/truetype/noto/NotoSansLaoUI-Regular.ttf
p736
sg21
g22
sbag1
(g8
g3
NtRp737
(dp738
g11
g17
sg13
VNoto Sans Sinhala
p739
sg15
I700
sg16
g17
sg18
g17
sg19
V/usr/share/fonts/truetype/noto/NotoSansSinhala-Bold.ttf
p740
sg21
g22
sbag1
(g8
g3
NtRp741
(dp742
g11
g33
sg13
VUmpush
p743
sg15
I400
sg16
g17
sg18
g17
sg19
V/usr/share/fonts/truetype/tlwg/Umpush-Oblique.ttf
p744
sg21
g22
sbag1
(g8
g3
NtRp745
(dp746
g11
g17
sg13
VNanumGothic
p747
sg15
I700
sg16
g17
sg18
g17
sg19
V/usr/share/fonts/truetype/nanum/NanumGothicBold.ttf
p748
sg21
g22
sbag1
(g8
g3
NtRp749
(dp750
g11
g12
sg13
VLiberation Mono
p751
sg15
I700
sg16
g17
sg18
g17
sg19
V/usr/share/fonts/truetype/liberation/LiberationMono-BoldItalic.ttf
p752
sg21
g22
sbag1
(g8
g3
NtRp753
(dp754
g11
g17
sg13
VNoto Sans Malayalam
p755
sg15
I400
sg16
g17
sg18
g17
sg19
V/usr/share/fonts/truetype/noto/NotoSansMalayalam-Regular.ttf
p756
sg21
g22
sbag1
(g8
g3
NtRp757
(dp758
g11
g17
sg13
VPadauk
p759
sg15
I700
sg16
g17
sg18
g17
sg19
V/usr/share/fonts/truetype/padauk/Padauk-bold.ttf
p760
sg21
g22
sbag1
(g8
g3
NtRp761
(dp762
g11
g33
sg13
VLoma
p763
sg15
I700
sg16
g17
sg18
g17
sg19
V/usr/share/fonts/truetype/tlwg/Loma-BoldOblique.ttf
p764
sg21
g22
sbag1
(g8
g3
NtRp765
(dp766
g11
g12
sg13
VSTIXNonUnicode
p767
sg15
I400
sg16
g17
sg18
g17
sg19
V/usr/share/fonts/opentype/stix/STIXNonUnicode-Italic.otf
p768
sg21
g22
sbag1
(g8
g3
NtRp769
(dp770
g11
g17
sg13
VDejaVu Sans Mono
p771
sg15
I400
sg16
g17
sg18
g17
sg19
V/usr/share/fonts/truetype/dejavu/DejaVuSansMono.ttf
p772
sg21
g22
sbag1
(g8
g3
NtRp773
(dp774
g11
g17
sg13
VTlwg Typewriter
p775
sg15
I400
sg16
g17
sg18
g17
sg19
V/usr/share/fonts/truetype/tlwg/TlwgTypewriter.ttf
p776
sg21
g22
sbag1
(g8
g3
NtRp777
(dp778
g11
g17
sg13
VSTIXIntegralsSm
p779
sg15
I400
sg16
g17
sg18
g17
sg19
V/usr/share/fonts/opentype/stix/STIXIntegralsSm-Regular.otf
p780
sg21
g22
sbag1
(g8
g3
NtRp781
(dp782
g11
g17
sg13
VUbuntu Condensed
p783
sg15
I400
sg16
g295
sg18
g17
sg19
V/usr/share/fonts/truetype/ubuntu-font-family/Ubuntu-C.ttf
p784
sg21
g22
sbag1
(g8
g3
NtRp785
(dp786
g11
g33
sg13
VGaruda
p787
sg15
I700
sg16
g17
sg18
g17
sg19
V/usr/share/fonts/truetype/tlwg/Garuda-BoldOblique.ttf
p788
sg21
g22
sbag1
(g8
g3
NtRp789
(dp790
g11
g17
sg13
VNoto Sans Malayalam UI
p791
sg15
I400
sg16
g17
sg18
g17
sg19
V/usr/share/fonts/truetype/noto/NotoSansMalayalamUI-Regular.ttf
p792
sg21
g22
sbag1
(g8
g3
NtRp793
(dp794
g11
g17
sg13
VLoma
p795
sg15
I400
sg16
g17
sg18
g17
sg19
V/usr/share/fonts/truetype/tlwg/Loma.ttf
p796
sg21
g22
sbag1
(g8
g3
NtRp797
(dp798
g11
g17
sg13
VNoto Sans Gurmukhi
p799
sg15
I400
sg16
g17
sg18
g17
sg19
V/usr/share/fonts/truetype/noto/NotoSansGurmukhi-Regular.ttf
p800
sg21
g22
sbag1
(g8
g3
NtRp801
(dp802
g11
g17
sg13
VWaree
p803
sg15
I400
sg16
g17
sg18
g17
sg19
V/usr/share/fonts/truetype/tlwg/Waree.ttf
p804
sg21
g22
sbag1
(g8
g3
NtRp805
(dp806
g11
g17
sg13
VOpenSymbol
p807
sg15
I400
sg16
g17
sg18
g17
sg19
V/usr/share/fonts/truetype/openoffice/opens___.ttf
p808
sg21
g22
sbag1
(g8
g3
NtRp809
(dp810
g11
g33
sg13
VGaruda
p811
sg15
I400
sg16
g17
sg18
g17
sg19
V/usr/share/fonts/truetype/tlwg/Garuda-Oblique.ttf
p812
sg21
g22
sbag1
(g8
g3
NtRp813
(dp814
g11
g17
sg13
VNoto Kufi Arabic
p815
sg15
I700
sg16
g17
sg18
g17
sg19
V/usr/share/fonts/truetype/noto/NotoKufiArabic-Bold.ttf
p816
sg21
g22
sbag1
(g8
g3
NtRp817
(dp818
g11
g12
sg13
VNorasi
p819
sg15
I400
sg16
g17
sg18
g17
sg19
V/usr/share/fonts/truetype/tlwg/Norasi-Italic.ttf
p820
sg21
g22
sbag1
(g8
g3
NtRp821
(dp822
g11
g17
sg13
VNoto Sans Tamil UI
p823
sg15
I400
sg16
g17
sg18
g17
sg19
V/usr/share/fonts/truetype/noto/NotoSansTamilUI-Regular.ttf
p824
sg21
g22
sbag1
(g8
g3
NtRp825
(dp826
g11
g17
sg13
VTakaoPGothic
p827
sg15
I400
sg16
g17
sg18
g17
sg19
V/usr/share/fonts/truetype/takao-gothic/TakaoPGothic.ttf
p828
sg21
g22
sbag1
(g8
g3
NtRp829
(dp830
g11
g17
sg13
VKhmer OS System
p831
sg15
I400
sg16
g17
sg18
g17
sg19
V/usr/share/fonts/truetype/ttf-khmeros-core/KhmerOSsys.ttf
p832
sg21
g22
sbag1
(g8
g3
NtRp833
(dp834
g11
g17
sg13
VKacstOne
p835
sg15
I400
sg16
g17
sg18
g17
sg19
V/usr/share/fonts/truetype/kacst-one/KacstOne.ttf
p836
sg21
g22
sbag1
(g8
g3
NtRp837
(dp838
g11
g33
sg13
VTlwg Typist
p839
sg15
I400
sg16
g17
sg18
g17
sg19
V/usr/share/fonts/truetype/tlwg/TlwgTypist-Oblique.ttf
p840
sg21
g22
sbag1
(g8
g3
NtRp841
(dp842
g11
g17
sg13
VNorasi
p843
sg15
I400
sg16
g17
sg18
g17
sg19
V/usr/share/fonts/truetype/tlwg/Norasi.ttf
p844
sg21
g22
sbag1
(g8
g3
NtRp845
(dp846
g11
g17
sg13
VNoto Serif Thai
p847
sg15
I400
sg16
g17
sg18
g17
sg19
V/usr/share/fonts/truetype/noto/NotoSerifThai-Regular.ttf
p848
sg21
g22
sbag1
(g8
g3
NtRp849
(dp850
g11
g17
sg13
VNoto Serif Tamil
p851
sg15
I700
sg16
g17
sg18
g17
sg19
V/usr/share/fonts/truetype/noto/NotoSerifTamil-Bold.ttf
p852
sg21
g22
sbag1
(g8
g3
NtRp853
(dp854
g11
g17
sg13
VNoto Sans Telugu
p855
sg15
I700
sg16
g17
sg18
g17
sg19
V/usr/share/fonts/truetype/noto/NotoSansTelugu-Bold.ttf
p856
sg21
g22
sbag1
(g8
g3
NtRp857
(dp858
g11
g17
sg13
VKacstOne
p859
sg15
I700
sg16
g17
sg18
g17
sg19
V/usr/share/fonts/truetype/kacst-one/KacstOne-Bold.ttf
p860
sg21
g22
sbag1
(g8
g3
NtRp861
(dp862
g11
g33
sg13
VUmpush
p863
sg15
I700
sg16
g17
sg18
g17
sg19
V/usr/share/fonts/truetype/tlwg/Umpush-BoldOblique.ttf
p864
sg21
g22
sbag1
(g8
g3
NtRp865
(dp866
g11
g17
sg13
VUbuntu
p867
sg15
I700
sg16
g17
sg18
g17
sg19
V/usr/share/fonts/truetype/ubuntu-font-family/Ubuntu-B.ttf
p868
sg21
g22
sbag1
(g8
g3
NtRp869
(dp870
g11
g17
sg13
VSTIXIntegralsUpSm
p871
sg15
I700
sg16
g17
sg18
g17
sg19
V/usr/share/fonts/opentype/stix/STIXIntegralsUpSm-Bold.otf
p872
sg21
g22
sbag1
(g8
g3
NtRp873
(dp874
g11
g17
sg13
VSTIX
p875
sg15
I400
sg16
g17
sg18
g17
sg19
V/usr/share/fonts/opentype/stix-word/STIX-Regular.otf
p876
sg21
g22
sbag1
(g8
g3
NtRp877
(dp878
g11
g17
sg13
VDejaVu Sans
p879
sg15
I400
sg16
g17
sg18
g17
sg19
V/usr/share/fonts/truetype/dejavu/DejaVuSans.ttf
p880
sg21
g22
sbag1
(g8
g3
NtRp881
(dp882
g11
g17
sg13
VTlwg Typo
p883
sg15
I700
sg16
g17
sg18
g17
sg19
V/usr/share/fonts/truetype/tlwg/TlwgTypo-Bold.ttf
p884
sg21
g22
sbag1
(g8
g3
NtRp885
(dp886
g11
g17
sg13
VNoto Sans Malayalam
p887
sg15
I700
sg16
g17
sg18
g17
sg19
V/usr/share/fonts/truetype/noto/NotoSansMalayalam-Bold.ttf
p888
sg21
g22
sbag1
(g8
g3
NtRp889
(dp890
g11
g17
sg13
VDejaVu Sans
p891
sg15
I700
sg16
g17
sg18
g17
sg19
V/usr/share/fonts/truetype/dejavu/DejaVuSans-Bold.ttf
p892
sg21
g22
sbag1
(g8
g3
NtRp893
(dp894
g11
g17
sg13
VSTIXNonUnicode
p895
sg15
I400
sg16
g17
sg18
g17
sg19
V/usr/share/fonts/opentype/stix/STIXNonUnicode-Regular.otf
p896
sg21
g22
sbag1
(g8
g3
NtRp897
(dp898
g11
g33
sg13
VWaree
p899
sg15
I400
sg16
g17
sg18
g17
sg19
V/usr/share/fonts/truetype/tlwg/Waree-Oblique.ttf
p900
sg21
g22
sbag1
(g8
g3
NtRp901
(dp902
g11
g17
sg13
VPadauk Book
p903
sg15
I700
sg16
g17
sg18
g17
sg19
V/usr/share/fonts/truetype/padauk/Padauk-bookbold.ttf
p904
sg21
g22
sbag1
(g8
g3
NtRp905
(dp906
g11
g17
sg13
VNanumBarunGothic
p907
sg15
I400
sg16
g17
sg18
g17
sg19
V/usr/share/fonts/truetype/nanum/NanumBarunGothic.ttf
p908
sg21
g22
sbag1
(g8
g3
NtRp909
(dp910
g11
g17
sg13
VTlwg Typewriter
p911
sg15
I700
sg16
g17
sg18
g17
sg19
V/usr/share/fonts/truetype/tlwg/TlwgTypewriter-Bold.ttf
p912
sg21
g22
sbag1
(g8
g3
NtRp913
(dp914
g11
g33
sg13
VWaree
p915
sg15
I700
sg16
g17
sg18
g17
sg19
V/usr/share/fonts/truetype/tlwg/Waree-BoldOblique.ttf
p916
sg21
g22
sbag1
(g8
g3
NtRp917
(dp918
g11
g17
sg13
VFreeSans
p919
sg15
I400
sg16
g17
sg18
g17
sg19
V/usr/share/fonts/truetype/freefont/FreeSans.ttf
p920
sg21
g22
sbag1
(g8
g3
NtRp921
(dp922
g11
g17
sg13
VSTIXNonUnicode
p923
sg15
I700
sg16
g17
sg18
g17
sg19
V/usr/share/fonts/opentype/stix/STIXNonUnicode-Bold.otf
p924
sg21
g22
sbag1
(g8
g3
NtRp925
(dp926
g11
g17
sg13
VDejaVu Serif
p927
sg15
I700
sg16
g17
sg18
g17
sg19
V/usr/share/fonts/truetype/dejavu/DejaVuSerif-Bold.ttf
p928
sg21
g22
sbag1
(g8
g3
NtRp929
(dp930
g11
g33
sg13
VKinnari
p931
sg15
I400
sg16
g17
sg18
g17
sg19
V/usr/share/fonts/truetype/tlwg/Kinnari-Oblique.ttf
p932
sg21
g22
sbag1
(g8
g3
NtRp933
(dp934
g11
g17
sg13
VSaab
p935
sg15
I400
sg16
g17
sg18
g17
sg19
V/usr/share/fonts/truetype/fonts-guru-extra/Saab.ttf
p936
sg21
g22
sbag1
(g8
g3
NtRp937
(dp938
g11
g17
sg13
VNoto Serif Khmer
p939
sg15
I400
sg16
g17
sg18
g17
sg19
V/usr/share/fonts/truetype/noto/NotoSerifKhmer-Regular.ttf
p940
sg21
g22
sbag1
(g8
g3
NtRp941
(dp942
g11
g17
sg13
VNoto Sans Georgian
p943
sg15
I700
sg16
g17
sg18
g17
sg19
V/usr/share/fonts/truetype/noto/NotoSansGeorgian-Bold.ttf
p944
sg21
g22
sbag1
(g8
g3
NtRp945
(dp946
g11
g12
sg13
VFreeSerif
p947
sg15
I700
sg16
g17
sg18
g17
sg19
V/usr/share/fonts/truetype/freefont/FreeSerifBoldItalic.ttf
p948
sg21
g22
sbag1
(g8
g3
NtRp949
(dp950
g11
g17
sg13
VKacstPen
p951
sg15
I400
sg16
g17
sg18
g17
sg19
V/usr/share/fonts/truetype/kacst/KacstPen.ttf
p952
sg21
g22
sbag1
(g8
g3
NtRp953
(dp954
g11
g17
sg13
VNoto Sans Kannada UI
p955
sg15
I700
sg16
g17
sg18
g17
sg19
V/usr/share/fonts/truetype/noto/NotoSansKannadaUI-Bold.ttf
p956
sg21
g22
sbag1
(g8
g3
NtRp957
(dp958
g11
g17
sg13
VKacstArt
p959
sg15
I400
sg16
g17
sg18
g17
sg19
V/usr/share/fonts/truetype/kacst/KacstArt.ttf
p960
sg21
g22
sbag1
(g8
g3
NtRp961
(dp962
g11
g17
sg13
VNoto Serif Telugu
p963
sg15
I700
sg16
g17
sg18
g17
sg19
V/usr/share/fonts/truetype/noto/NotoSerifTelugu-Bold.ttf
p964
sg21
g22
sbag1
(g8
g3
NtRp965
(dp966
g11
g12
sg13
VLiberation Sans Narrow
p967
sg15
I700
sg16
g295
sg18
g17
sg19
V/usr/share/fonts/truetype/liberation/LiberationSansNarrow-BoldItalic.ttf
p968
sg21
g22
sbag1
(g8
g3
NtRp969
(dp970
g11
g17
sg13
VSTIXSizeThreeSym
p971
sg15
I700
sg16
g17
sg18
g17
sg19
V/usr/share/fonts/opentype/stix/STIXSizeThreeSym-Bold.otf
p972
sg21
g22
sbag1
(g8
g3
NtRp973
(dp974
g11
g33
sg13
VTlwg Mono
p975
sg15
I700
sg16
g17
sg18
g17
sg19
V/usr/share/fonts/truetype/tlwg/TlwgMono-BoldOblique.ttf
p976
sg21
g22
sbag1
(g8
g3
NtRp977
(dp978
g11
g17
sg13
VUmpush
p979
sg15
I200
sg16
g17
sg18
g17
sg19
V/usr/share/fonts/truetype/tlwg/Umpush-Light.ttf
p980
sg21
g22
sbag1
(g8
g3
NtRp981
(dp982
g11
g17
sg13
VNoto Sans Tibetan
p983
sg15
I700
sg16
g17
sg18
g17
sg19
V/usr/share/fonts/truetype/noto/NotoSansTibetan-Bold.ttf
p984
sg21
g22
sbag1
(g8
g3
NtRp985
(dp986
g11
g12
sg13
VUbuntu Mono
p987
sg15
I700
sg16
g17
sg18
g17
sg19
V/usr/share/fonts/truetype/ubuntu-font-family/UbuntuMono-BI.ttf
p988
sg21
g22
sbag1
(g8
g3
NtRp989
(dp990
g11
g17
sg13
VNoto Serif Telugu
p991
sg15
I400
sg16
g17
sg18
g17
sg19
V/usr/share/fonts/truetype/noto/NotoSerifTelugu-Regular.ttf
p992
sg21
g22
sbag1
(g8
g3
NtRp993
(dp994
g11
g17
sg13
VNoto Serif Malayalam
p995
sg15
I700
sg16
g17
sg18
g17
sg19
V/usr/share/fonts/truetype/noto/NotoSerifMalayalam-Bold.ttf
p996
sg21
g22
sbag1
(g8
g3
NtRp997
(dp998
g11
g12
sg13
VSTIX
p999
sg15
I700
sg16
g17
sg18
g17
sg19
V/usr/share/fonts/opentype/stix-word/STIX-BoldItalic.otf
p1000
sg21
g22
sbag1
(g8
g3
NtRp1001
(dp1002
g11
g17
sg13
VSTIXIntegralsSm
p1003
sg15
I700
sg16
g17
sg18
g17
sg19
V/usr/share/fonts/opentype/stix/STIXIntegralsSm-Bold.otf
p1004
sg21
g22
sbag1
(g8
g3
NtRp1005
(dp1006
g11
g33
sg13
VPurisa
p1007
sg15
I700
sg16
g17
sg18
g17
sg19
V/usr/share/fonts/truetype/tlwg/Purisa-BoldOblique.ttf
p1008
sg21
g22
sbag1
(g8
g3
NtRp1009
(dp1010
g11
g33
sg13
VTlwg Typo
p1011
sg15
I400
sg16
g17
sg18
g17
sg19
V/usr/share/fonts/truetype/tlwg/TlwgTypo-Oblique.ttf
p1012
sg21
g22
sbag1
(g8
g3
NtRp1013
(dp1014
g11
g17
sg13
VUbuntu Mono
p1015
sg15
I700
sg16
g17
sg18
g17
sg19
V/usr/share/fonts/truetype/ubuntu-font-family/UbuntuMono-B.ttf
p1016
sg21
g22
sbag1
(g8
g3
NtRp1017
(dp1018
g11
g17
sg13
VSTIX
p1019
sg15
I700
sg16
g17
sg18
g17
sg19
V/usr/share/fonts/opentype/stix-word/STIX-Bold.otf
p1020
sg21
g22
sbag1
(g8
g3
NtRp1021
(dp1022
g11
g17
sg13
VKinnari
p1023
sg15
I400
sg16
g17
sg18
g17
sg19
V/usr/share/fonts/truetype/tlwg/Kinnari.ttf
p1024
sg21
g22
sbag1
(g8
g3
NtRp1025
(dp1026
g11
g17
sg13
VSTIXSizeTwoSym
p1027
sg15
I700
sg16
g17
sg18
g17
sg19
V/usr/share/fonts/opentype/stix/STIXSizeTwoSym-Bold.otf
p1028
sg21
g22
sbag1
(g8
g3
NtRp1029
(dp1030
g11
g17
sg13
VNoto Sans UI
p1031
sg15
I400
sg16
g17
sg18
g17
sg19
V/usr/share/fonts/truetype/noto/NotoSansUI-Regular.ttf
p1032
sg21
g22
sbag1
(g8
g3
NtRp1033
(dp1034
g11
g17
sg13
VNoto Sans Cham
p1035
sg15
I700
sg16
g17
sg18
g17
sg19
V/usr/share/fonts/truetype/noto/NotoSansCham-Bold.ttf
p1036
sg21
g22
sbag1
(g8
g3
NtRp1037
(dp1038
g11
g17
sg13
VNoto Sans Oriya UI
p1039
sg15
I400
sg16
g17
sg18
g17
sg19
V/usr/share/fonts/truetype/noto/NotoSansOriyaUI-Regular.ttf
p1040
sg21
g22
sbag1
(g8
g3
NtRp1041
(dp1042
g11
g17
sg13
VNoto Sans Oriya UI
p1043
sg15
I700
sg16
g17
sg18
g17
sg19
V/usr/share/fonts/truetype/noto/NotoSansOriyaUI-Bold.ttf
p1044
sg21
g22
sbag1
(g8
g3
NtRp1045
(dp1046
g11
g17
sg13
VSTIXGeneral
p1047
sg15
I400
sg16
g17
sg18
g17
sg19
V/usr/share/fonts/opentype/stix/STIXGeneral-Regular.otf
p1048
sg21
g22
sbag1
(g8
g3
NtRp1049
(dp1050
g11
g17
sg13
VNoto Sans Khmer UI
p1051
sg15
I400
sg16
g17
sg18
g17
sg19
V/usr/share/fonts/truetype/noto/NotoSansKhmerUI-Regular.ttf
p1052
sg21
g22
sbag1
(g8
g3
NtRp1053
(dp1054
g11
g17
sg13
VSymbola
p1055
sg15
I400
sg16
g17
sg18
g17
sg19
V/usr/share/fonts/truetype/ancient-scripts/Symbola_hint.ttf
p1056
sg21
g22
sbag1
(g8
g3
NtRp1057
(dp1058
g11
g12
sg13
VUbuntu
p1059
sg15
I500
sg16
g17
sg18
g17
sg19
V/usr/share/fonts/truetype/ubuntu-font-family/Ubuntu-MI.ttf
p1060
sg21
g22
sbag1
(g8
g3
NtRp1061
(dp1062
g11
g17
sg13
VNoto Sans Bengali
p1063
sg15
I700
sg16
g17
sg18
g17
sg19
V/usr/share/fonts/truetype/noto/NotoSansBengali-Bold.ttf
p1064
sg21
g22
sbag1
(g8
g3
NtRp1065
(dp1066
g11
g17
sg13
VKinnari
p1067
sg15
I700
sg16
g17
sg18
g17
sg19
V/usr/share/fonts/truetype/tlwg/Kinnari-Bold.ttf
p1068
sg21
g22
sbag1
(g8
g3
NtRp1069
(dp1070
g11
g17
sg13
VNoto Sans Lao
p1071
sg15
I700
sg16
g17
sg18
g17
sg19
V/usr/share/fonts/truetype/noto/NotoSansLao-Bold.ttf
p1072
sg21
g22
sbag1
(g8
g3
NtRp1073
(dp1074
g11
g33
sg13
VFreeMono
p1075
sg15
I400
sg16
g17
sg18
g17
sg19
V/usr/share/fonts/truetype/freefont/FreeMonoOblique.ttf
p1076
sg21
g22
sbag1
(g8
g3
NtRp1077
(dp1078
g11
g12
sg13
VSTIXNonUnicode
p1079
sg15
I700
sg16
g17
sg18
g17
sg19
V/usr/share/fonts/opentype/stix/STIXNonUnicode-BoldItalic.otf
p1080
sg21
g22
sbag1
(g8
g3
NtRp1081
(dp1082
g11
g17
sg13
VTlwg Mono
p1083
sg15
I400
sg16
g17
sg18
g17
sg19
V/usr/share/fonts/truetype/tlwg/TlwgMono.ttf
p1084
sg21
g22
sbag1
(g8
g3
NtRp1085
(dp1086
g11
g33
sg13
VTlwg Typewriter
p1087
sg15
I700
sg16
g17
sg18
g17
sg19
V/usr/share/fonts/truetype/tlwg/TlwgTypewriter-BoldOblique.ttf
p1088
sg21
g22
sbag1
(g8
g3
NtRp1089
(dp1090
g11
g17
sg13
VNoto Naskh Arabic
p1091
sg15
I700
sg16
g17
sg18
g17
sg19
V/usr/share/fonts/truetype/noto/NotoNaskhArabic-Bold.ttf
p1092
sg21
g22
sbag1
(g8
g3
NtRp1093
(dp1094
g11
g17
sg13
VSTIXSizeFourSym
p1095
sg15
I700
sg16
g17
sg18
g17
sg19
V/usr/share/fonts/opentype/stix/STIXSizeFourSym-Bold.otf
p1096
sg21
g22
sbag1
(g8
g3
NtRp1097
(dp1098
g11
g17
sg13
VFreeSerif
p1099
sg15
I400
sg16
g17
sg18
g17
sg19
V/usr/share/fonts/truetype/freefont/FreeSerif.ttf
p1100
sg21
g22
sbag1
(g8
g3
NtRp1101
(dp1102
g11
g17
sg13
VNoto Sans Devanagari
p1103
sg15
I400
sg16
g17
sg18
g17
sg19
V/usr/share/fonts/truetype/noto/NotoSansDevanagari-Regular.ttf
p1104
sg21
g22
sbag1
(g8
g3
NtRp1105
(dp1106
g11
g17
sg13
VNoto Sans Gujarati
p1107
sg15
I400
sg16
g17
sg18
g17
sg19
V/usr/share/fonts/truetype/noto/NotoSansGujarati-Regular.ttf
p1108
sg21
g22
sbag1
(g8
g3
NtRp1109
(dp1110
g11
g17
sg13
VNoto Sans
p1111
sg15
I400
sg16
g17
sg18
g17
sg19
V/usr/share/fonts/truetype/noto/NotoSans-Regular.ttf
p1112
sg21
g22
sbag1
(g8
g3
NtRp1113
(dp1114
g11
g17
sg13
VNoto Sans Tamil
p1115
sg15
I700
sg16
g17
sg18
g17
sg19
V/usr/share/fonts/truetype/noto/NotoSansTamil-Bold.ttf
p1116
sg21
g22
sbag1
(g8
g3
NtRp1117
(dp1118
g11
g17
sg13
VNoto Sans Devanagari UI
p1119
sg15
I400
sg16
g17
sg18
g17
sg19
V/usr/share/fonts/truetype/noto/NotoSansDevanagariUI-Regular.ttf
p1120
sg21
g22
sbag1
(g8
g3
NtRp1121
(dp1122
g11
g17
sg13
VSTIXVariants
p1123
sg15
I700
sg16
g17
sg18
g17
sg19
V/usr/share/fonts/opentype/stix/STIXVariants-Bold.otf
p1124
sg21
g22
sbag1
(g8
g3
NtRp1125
(dp1126
g11
g17
sg13
VNoto Serif Armenian
p1127
sg15
I400
sg16
g17
sg18
g17
sg19
V/usr/share/fonts/truetype/noto/NotoSerifArmenian-Regular.ttf
p1128
sg21
g22
sbag1
(g8
g3
NtRp1129
(dp1130
g11
g33
sg13
VPurisa
p1131
sg15
I400
sg16
g17
sg18
g17
sg19
V/usr/share/fonts/truetype/tlwg/Purisa-Oblique.ttf
p1132
sg21
g22
sbag1
(g8
g3
NtRp1133
(dp1134
g11
g12
sg13
VKinnari
p1135
sg15
I400
sg16
g17
sg18
g17
sg19
V/usr/share/fonts/truetype/tlwg/Kinnari-Italic.ttf
p1136
sg21
g22
sbag1
(g8
g3
NtRp1137
(dp1138
g11
g33
sg13
VSawasdee
p1139
sg15
I700
sg16
g17
sg18
g17
sg19
V/usr/share/fonts/truetype/tlwg/Sawasdee-BoldOblique.ttf
p1140
sg21
g22
sbag1
(g8
g3
NtRp1141
(dp1142
g11
g17
sg13
VSawasdee
p1143
sg15
I700
sg16
g17
sg18
g17
sg19
V/usr/share/fonts/truetype/tlwg/Sawasdee-Bold.ttf
p1144
sg21
g22
sbag1
(g8
g3
NtRp1145
(dp1146
g11
g17
sg13
VPadauk Book
p1147
sg15
I400
sg16
g17
sg18
g17
sg19
V/usr/share/fonts/truetype/padauk/Padauk-book.ttf
p1148
sg21
g22
sbag1
(g8
g3
NtRp1149
(dp1150
g11
g17
sg13
VNoto Sans Gurmukhi UI
p1151
sg15
I700
sg16
g17
sg18
g17
sg19
V/usr/share/fonts/truetype/noto/NotoSansGurmukhiUI-Bold.ttf
p1152
sg21
g22
sbag1
(g8
g3
NtRp1153
(dp1154
g11
g17
sg13
VSTIXIntegralsD
p1155
sg15
I400
sg16
g17
sg18
g17
sg19
V/usr/share/fonts/opentype/stix/STIXIntegralsD-Regular.otf
p1156
sg21
g22
sbag1
(g8
g3
NtRp1157
(dp1158
g11
g17
sg13
VNoto Serif Georgian
p1159
sg15
I700
sg16
g17
sg18
g17
sg19
V/usr/share/fonts/truetype/noto/NotoSerifGeorgian-Bold.ttf
p1160
sg21
g22
sbag1
(g8
g3
NtRp1161
(dp1162
g11
g17
sg13
VSTIXSizeOneSym
p1163
sg15
I400
sg16
g17
sg18
g17
sg19
V/usr/share/fonts/opentype/stix/STIXSizeOneSym-Regular.otf
p1164
sg21
g22
sbag1
(g8
g3
NtRp1165
(dp1166
g11
g17
sg13
VFreeMono
p1167
sg15
I700
sg16
g17
sg18
g17
sg19
V/usr/share/fonts/truetype/freefont/FreeMonoBold.ttf
p1168
sg21
g22
sbag1
(g8
g3
NtRp1169
(dp1170
g11
g17
sg13
VSTIX Math
p1171
sg15
I400
sg16
g17
sg18
g17
sg19
V/usr/share/fonts/opentype/stix-word/STIXMath-Regular.otf
p1172
sg21
g22
sbag1
(g8
g3
NtRp1173
(dp1174
g11
g17
sg13
VAbyssinica SIL
p1175
sg15
I400
sg16
g17
sg18
g17
sg19
V/usr/share/fonts/truetype/abyssinica/AbyssinicaSIL-R.ttf
p1176
sg21
g22
sbag1
(g8
g3
NtRp1177
(dp1178
g11
g17
sg13
VNoto Sans Kannada UI
p1179
sg15
I400
sg16
g17
sg18
g17
sg19
V/usr/share/fonts/truetype/noto/NotoSansKannadaUI-Regular.ttf
p1180
sg21
g22
sbag1
(g8
g3
NtRp1181
(dp1182
g11
g33
sg13
VSawasdee
p1183
sg15
I400
sg16
g17
sg18
g17
sg19
V/usr/share/fonts/truetype/tlwg/Sawasdee-Oblique.ttf
p1184
sg21
g22
sbag1
(g8
g3
NtRp1185
(dp1186
g11
g17
sg13
VNoto Serif Khmer
p1187
sg15
I700
sg16
g17
sg18
g17
sg19
V/usr/share/fonts/truetype/noto/NotoSerifKhmer-Bold.ttf
p1188
sg21
g22
sbag1
(g8
g3
NtRp1189
(dp1190
g11
g17
sg13
VSTIXIntegralsUpD
p1191
sg15
I700
sg16
g17
sg18
g17
sg19
V/usr/share/fonts/opentype/stix/STIXIntegralsUpD-Bold.otf
p1192
sg21
g22
sbag1
(g8
g3
NtRp1193
(dp1194
g11
g17
sg13
VSTIXIntegralsD
p1195
sg15
I700
sg16
g17
sg18
g17
sg19
V/usr/share/fonts/opentype/stix/STIXIntegralsD-Bold.otf
p1196
sg21
g22
sbag1
(g8
g3
NtRp1197
(dp1198
g11
g12
sg13
VNoto Serif
p1199
sg15
I700
sg16
g17
sg18
g17
sg19
V/usr/share/fonts/truetype/noto/NotoSerif-BoldItalic.ttf
p1200
sg21
g22
sbag1
(g8
g3
NtRp1201
(dp1202
g11
g17
sg13
VKhmer OS
p1203
sg15
I400
sg16
g17
sg18
g17
sg19
V/usr/share/fonts/truetype/ttf-khmeros-core/KhmerOS.ttf
p1204
sg21
g22
sbag1
(g8
g3
NtRp1205
(dp1206
g11
g17
sg13
VSTIXGeneral
p1207
sg15
I700
sg16
g17
sg18
g17
sg19
V/usr/share/fonts/opentype/stix/STIXGeneral-Bold.otf
p1208
sg21
g22
sbag1
(g8
g3
NtRp1209
(dp1210
g11
g17
sg13
VPadauk
p1211
sg15
I400
sg16
g17
sg18
g17
sg19
V/usr/share/fonts/truetype/padauk/Padauk.ttf
p1212
sg21
g22
sbag1
(g8
g3
NtRp1213
(dp1214
g11
g17
sg13
VKacstQurn
p1215
sg15
I400
sg16
g17
sg18
g17
sg19
V/usr/share/fonts/truetype/kacst/KacstQurn.ttf
p1216
sg21
g22
sbag1
(g8
g3
NtRp1217
(dp1218
g11
g17
sg13
VNoto Sans Tamil
p1219
sg15
I400
sg16
g17
sg18
g17
sg19
V/usr/share/fonts/truetype/noto/NotoSansTamil-Regular.ttf
p1220
sg21
g22
sbag1
(g8
g3
NtRp1221
(dp1222
g11
g12
sg13
VLaksaman
p1223
sg15
I400
sg16
g17
sg18
g17
sg19
V/usr/share/fonts/truetype/tlwg/Laksaman-Italic.ttf
p1224
sg21
g22
sbag1
(g8
g3
NtRp1225
(dp1226
g11
g17
sg13
VNoto Sans Hebrew
p1227
sg15
I700
sg16
g17
sg18
g17
sg19
V/usr/share/fonts/truetype/noto/NotoSansHebrew-Bold.ttf
p1228
sg21
g22
sbag1
(g8
g3
NtRp1229
(dp1230
g11
g17
sg13
VNoto Sans Telugu UI
p1231
sg15
I400
sg16
g17
sg18
g17
sg19
V/usr/share/fonts/truetype/noto/NotoSansTeluguUI-Regular.ttf
p1232
sg21
g22
sbag1
(g8
g3
NtRp1233
(dp1234
g11
g12
sg13
VSTIX
p1235
sg15
I400
sg16
g17
sg18
g17
sg19
V/usr/share/fonts/opentype/stix-word/STIX-Italic.otf
p1236
sg21
g22
sbag1
(g8
g3
NtRp1237
(dp1238
g11
g17
sg13
VNoto Sans Devanagari UI
p1239
sg15
I700
sg16
g17
sg18
g17
sg19
V/usr/share/fonts/truetype/noto/NotoSansDevanagariUI-Bold.ttf
p1240
sg21
g22
sbag1
(g8
g3
NtRp1241
(dp1242
g11
g12
sg13
VUbuntu Mono
p1243
sg15
I400
sg16
g17
sg18
g17
sg19
V/usr/share/fonts/truetype/ubuntu-font-family/UbuntuMono-RI.ttf
p1244
sg21
g22
sbag1
(g8
g3
NtRp1245
(dp1246
g11
g17
sg13
VNoto Sans
p1247
sg15
I700
sg16
g17
sg18
g17
sg19
V/usr/share/fonts/truetype/noto/NotoSans-Bold.ttf
p1248
sg21
g22
sbag1
(g8
g3
NtRp1249
(dp1250
g11
g17
sg13
VUbuntu
p1251
sg15
I200
sg16
g17
sg18
g17
sg19
V/usr/share/fonts/truetype/ubuntu-font-family/Ubuntu-L.ttf
p1252
sg21
g22
sbag1
(g8
g3
NtRp1253
(dp1254
g11
g17
sg13
VFreeMono
p1255
sg15
I400
sg16
g17
sg18
g17
sg19
V/usr/share/fonts/truetype/freefont/FreeMono.ttf
p1256
sg21
g22
sbag1
(g8
g3
NtRp1257
(dp1258
g11
g17
sg13
VNoto Serif
p1259
sg15
I400
sg16
g17
sg18
g17
sg19
V/usr/share/fonts/truetype/noto/NotoSerif-Regular.ttf
p1260
sg21
g22
sbag1
(g8
g3
NtRp1261
(dp1262
g11
g17
sg13
VNoto Sans Oriya
p1263
sg15
I400
sg16
g17
sg18
g17
sg19
V/usr/share/fonts/truetype/noto/NotoSansOriya-Regular.ttf
p1264
sg21
g22
sbag1
(g8
g3
NtRp1265
(dp1266
g11
g17
sg13
VKacstTitleL
p1267
sg15
I400
sg16
g17
sg18
g17
sg19
V/usr/share/fonts/truetype/kacst/KacstTitleL.ttf
p1268
sg21
g22
sbag1
(g8
g3
NtRp1269
(dp1270
g11
g33
sg13
VFreeSans
p1271
sg15
I700
sg16
g17
sg18
g17
sg19
V/usr/share/fonts/truetype/freefont/FreeSansBoldOblique.ttf
p1272
sg21
g22
sbag1
(g8
g3
NtRp1273
(dp1274
g11
g17
sg13
VLiberation Sans Narrow
p1275
sg15
I400
sg16
g295
sg18
g17
sg19
V/usr/share/fonts/truetype/liberation/LiberationSansNarrow-Regular.ttf
p1276
sg21
g22
sbag1
(g8
g3
NtRp1277
(dp1278
g11
g12
sg13
VUbuntu
p1279
sg15
I400
sg16
g17
sg18
g17
sg19
V/usr/share/fonts/truetype/ubuntu-font-family/Ubuntu-RI.ttf
p1280
sg21
g22
sbag1
(g8
g3
NtRp1281
(dp1282
g11
g17
sg13
VKacstDecorative
p1283
sg15
I400
sg16
g17
sg18
g17
sg19
V/usr/share/fonts/truetype/kacst/KacstDecorative.ttf
p1284
sg21
g22
sbag1
(g8
g3
NtRp1285
(dp1286
g11
g33
sg13
VTlwg Typewriter
p1287
sg15
I400
sg16
g17
sg18
g17
sg19
V/usr/share/fonts/truetype/tlwg/TlwgTypewriter-Oblique.ttf
p1288
sg21
g22
sbag1
(g8
g3
NtRp1289
(dp1290
g11
g12
sg13
VLiberation Sans Narrow
p1291
sg15
I400
sg16
g295
sg18
g17
sg19
V/usr/share/fonts/truetype/liberation/LiberationSansNarrow-Italic.ttf
p1292
sg21
g22
sbag1
(g8
g3
NtRp1293
(dp1294
g11
g17
sg13
VNoto Sans Thai
p1295
sg15
I700
sg16
g17
sg18
g17
sg19
V/usr/share/fonts/truetype/noto/NotoSansThai-Bold.ttf
p1296
sg21
g22
sbag1
(g8
g3
NtRp1297
(dp1298
g11
g17
sg13
VNoto Sans Cham
p1299
sg15
I400
sg16
g17
sg18
g17
sg19
V/usr/share/fonts/truetype/noto/NotoSansCham-Regular.ttf
p1300
sg21
g22
sbasS'defaultFamily'
p1301
(dp1302
Vafm
p1303
VHelvetica
p1304
sVttf
p1305
VBitstream Vera Sans
p1306
ssS'ttffiles'
p1307
(lp1308
g20
ag26
ag30
ag35
ag39
ag43
ag47
ag51
ag55
ag59
ag63
ag67
ag71
ag75
ag79
ag83
ag87
ag91
ag95
ag99
ag103
ag107
ag111
ag115
ag119
ag123
ag127
ag131
ag135
ag139
ag143
ag147
ag151
ag155
ag159
ag163
ag167
ag171
ag175
ag179
ag183
ag187
ag191
ag195
ag199
ag203
ag207
ag211
ag215
ag219
ag223
ag227
ag231
ag235
ag239
ag243
ag247
ag251
ag255
ag259
ag263
ag267
ag271
ag275
ag279
ag283
ag287
ag291
ag296
ag300
ag304
ag308
ag312
ag316
ag320
ag324
ag328
ag332
ag336
ag340
ag344
ag348
ag352
ag356
ag360
ag364
ag368
ag372
ag376
ag380
ag384
ag388
ag392
ag396
ag400
ag404
ag408
ag412
ag416
ag420
ag424
ag428
ag432
ag436
ag440
ag444
ag448
ag452
ag456
ag460
ag464
ag468
ag472
ag476
ag480
ag484
ag488
ag492
ag496
ag500
ag504
ag508
ag512
ag516
ag520
ag524
ag528
ag532
ag536
ag540
ag544
ag548
ag552
ag556
ag560
ag564
ag568
ag572
ag576
ag580
ag584
ag588
ag592
ag596
ag600
ag604
ag608
ag612
ag616
ag620
ag624
ag628
ag632
ag636
ag640
ag644
ag648
ag652
ag656
ag660
ag664
ag668
ag672
ag676
ag680
ag684
ag688
ag692
ag696
ag700
ag704
ag708
ag712
ag716
ag720
ag724
ag728
ag732
ag736
ag740
ag744
ag748
ag752
ag756
ag760
ag764
ag768
ag772
ag776
ag780
ag784
ag788
ag792
ag796
ag800
ag804
ag808
ag812
ag816
ag820
ag824
ag828
ag832
ag836
ag840
ag844
ag848
ag852
ag856
ag860
ag864
ag868
ag872
ag876
ag880
ag884
ag888
ag892
ag896
ag900
ag904
ag908
ag912
ag916
ag920
ag924
ag928
ag932
ag936
ag940
ag944
ag948
ag952
ag956
ag960
ag964
ag968
ag972
ag976
ag980
ag984
ag988
ag992
ag996
ag1000
ag1004
ag1008
ag1012
ag1016
ag1020
ag1024
ag1028
ag1032
ag1036
ag1040
ag1044
ag1048
ag1052
ag1056
ag1060
ag1064
ag1068
ag1072
ag1076
ag1080
ag1084
ag1088
ag1092
ag1096
ag1100
ag1104
ag1108
ag1112
ag1116
ag1120
ag1124
ag1128
ag1132
ag1136
ag1140
ag1144
ag1148
ag1152
ag1156
ag1160
ag1164
ag1168
ag1172
ag1176
ag1180
ag1184
ag1188
ag1192
ag1196
ag1200
ag1204
ag1208
ag1212
ag1216
ag1220
ag1224
ag1228
ag1232
ag1236
ag1240
ag1244
ag1248
ag1252
ag1256
ag1260
ag1264
ag1268
ag1272
ag1276
ag1280
ag1284
ag1288
ag1292
ag1296
ag1300
asS'_FontManager__default_weight'
p1309
Vnormal
p1310
sS'_version'
p1311
I101
sS'default_size'
p1312
NsS'defaultFont'
p1313
(dp1314
g1303
V/home/jeff/.local/lib/python2.7/site-packages/matplotlib/mpl-data/fonts/afm/pncri8a.afm
p1315
sg1305
g71
ssS'afmfiles'
p1316
(lp1317
g1315
aV/home/jeff/.local/lib/python2.7/site-packages/matplotlib/mpl-data/fonts/pdfcorefonts/Helvetica-Bold.afm
p1318
aV/home/jeff/.local/lib/python2.7/site-packages/matplotlib/mpl-data/fonts/afm/pcrbo8a.afm
p1319
aV/home/jeff/.local/lib/python2.7/site-packages/matplotlib/mpl-data/fonts/afm/pncr8a.afm
p1320
aV/home/jeff/.local/lib/python2.7/site-packages/matplotlib/mpl-data/fonts/afm/ptmr8a.afm
p1321
aV/home/jeff/.local/lib/python2.7/site-packages/matplotlib/mpl-data/fonts/afm/putri8a.afm
p1322
aV/home/jeff/.local/lib/python2.7/site-packages/matplotlib/mpl-data/fonts/pdfcorefonts/Times-Roman.afm
p1323
aV/home/jeff/.local/lib/python2.7/site-packages/matplotlib/mpl-data/fonts/afm/pncb8a.afm
p1324
aV/home/jeff/.local/lib/python2.7/site-packages/matplotlib/mpl-data/fonts/pdfcorefonts/Helvetica.afm
p1325
aV/home/jeff/.local/lib/python2.7/site-packages/matplotlib/mpl-data/fonts/afm/pplri8a.afm
p1326
aV/home/jeff/.local/lib/python2.7/site-packages/matplotlib/mpl-data/fonts/afm/phvbo8an.afm
p1327
aV/home/jeff/.local/lib/python2.7/site-packages/matplotlib/mpl-data/fonts/afm/phvro8a.afm
p1328
aV/home/jeff/.local/lib/python2.7/site-packages/matplotlib/mpl-data/fonts/afm/pagko8a.afm
p1329
aV/home/jeff/.local/lib/python2.7/site-packages/matplotlib/mpl-data/fonts/pdfcorefonts/Courier-BoldOblique.afm
p1330
aV/home/jeff/.local/lib/python2.7/site-packages/matplotlib/mpl-data/fonts/afm/cmsy10.afm
p1331
aV/home/jeff/.local/lib/python2.7/site-packages/matplotlib/mpl-data/fonts/afm/phvb8an.afm
p1332
aV/home/jeff/.local/lib/python2.7/site-packages/matplotlib/mpl-data/fonts/afm/phvbo8a.afm
p1333
aV/home/jeff/.local/lib/python2.7/site-packages/matplotlib/mpl-data/fonts/afm/ptmb8a.afm
p1334
aV/home/jeff/.local/lib/python2.7/site-packages/matplotlib/mpl-data/fonts/afm/pcrr8a.afm
p1335
aV/home/jeff/.local/lib/python2.7/site-packages/matplotlib/mpl-data/fonts/afm/ptmbi8a.afm
p1336
aV/home/jeff/.local/lib/python2.7/site-packages/matplotlib/mpl-data/fonts/afm/pncbi8a.afm
p1337
aV/home/jeff/.local/lib/python2.7/site-packages/matplotlib/mpl-data/fonts/afm/pplr8a.afm
p1338
aV/home/jeff/.local/lib/python2.7/site-packages/matplotlib/mpl-data/fonts/afm/pagk8a.afm
p1339
aV/home/jeff/.local/lib/python2.7/site-packages/matplotlib/mpl-data/fonts/afm/cmmi10.afm
p1340
aV/home/jeff/.local/lib/python2.7/site-packages/matplotlib/mpl-data/fonts/afm/putb8a.afm
p1341
aV/home/jeff/.local/lib/python2.7/site-packages/matplotlib/mpl-data/fonts/pdfcorefonts/Times-Italic.afm
p1342
aV/home/jeff/.local/lib/python2.7/site-packages/matplotlib/mpl-data/fonts/afm/pcrb8a.afm
p1343
aV/home/jeff/.local/lib/python2.7/site-packages/matplotlib/mpl-data/fonts/afm/cmex10.afm
p1344
aV/home/jeff/.local/lib/python2.7/site-packages/matplotlib/mpl-data/fonts/pdfcorefonts/Helvetica-BoldOblique.afm
p1345
aV/home/jeff/.local/lib/python2.7/site-packages/matplotlib/mpl-data/fonts/pdfcorefonts/ZapfDingbats.afm
p1346
aV/home/jeff/.local/lib/python2.7/site-packages/matplotlib/mpl-data/fonts/afm/phvlo8a.afm
p1347
aV/home/jeff/.local/lib/python2.7/site-packages/matplotlib/mpl-data/fonts/afm/pbkdi8a.afm
p1348
aV/home/jeff/.local/lib/python2.7/site-packages/matplotlib/mpl-data/fonts/afm/pbkl8a.afm
p1349
aV/home/jeff/.local/lib/python2.7/site-packages/matplotlib/mpl-data/fonts/afm/cmr10.afm
p1350
aV/home/jeff/.local/lib/python2.7/site-packages/matplotlib/mpl-data/fonts/pdfcorefonts/Courier.afm
p1351
aV/home/jeff/.local/lib/python2.7/site-packages/matplotlib/mpl-data/fonts/afm/pcrro8a.afm
p1352
aV/home/jeff/.local/lib/python2.7/site-packages/matplotlib/mpl-data/fonts/pdfcorefonts/Courier-Bold.afm
p1353
aV/home/jeff/.local/lib/python2.7/site-packages/matplotlib/mpl-data/fonts/afm/phvr8an.afm
p1354
aV/home/jeff/.local/lib/python2.7/site-packages/matplotlib/mpl-data/fonts/afm/phvb8a.afm
p1355
aV/home/jeff/.local/lib/python2.7/site-packages/matplotlib/mpl-data/fonts/afm/ptmri8a.afm
p1356
aV/home/jeff/.local/lib/python2.7/site-packages/matplotlib/mpl-data/fonts/afm/pplb8a.afm
p1357
aV/home/jeff/.local/lib/python2.7/site-packages/matplotlib/mpl-data/fonts/afm/pplbi8a.afm
p1358
aV/home/jeff/.local/lib/python2.7/site-packages/matplotlib/mpl-data/fonts/afm/psyr.afm
p1359
aV/home/jeff/.local/lib/python2.7/site-packages/matplotlib/mpl-data/fonts/afm/phvl8a.afm
p1360
aV/home/jeff/.local/lib/python2.7/site-packages/matplotlib/mpl-data/fonts/afm/putr8a.afm
p1361
aV/home/jeff/.local/lib/python2.7/site-packages/matplotlib/mpl-data/fonts/afm/pbkd8a.afm
p1362
aV/home/jeff/.local/lib/python2.7/site-packages/matplotlib/mpl-data/fonts/afm/pzdr.afm
p1363
aV/home/jeff/.local/lib/python2.7/site-packages/matplotlib/mpl-data/fonts/afm/phvr8a.afm
p1364
aV/home/jeff/.local/lib/python2.7/site-packages/matplotlib/mpl-data/fonts/afm/putbi8a.afm
p1365
aV/home/jeff/.local/lib/python2.7/site-packages/matplotlib/mpl-data/fonts/afm/cmtt10.afm
p1366
aV/home/jeff/.local/lib/python2.7/site-packages/matplotlib/mpl-data/fonts/pdfcorefonts/Symbol.afm
p1367
aV/home/jeff/.local/lib/python2.7/site-packages/matplotlib/mpl-data/fonts/afm/pagd8a.afm
p1368
aV/home/jeff/.local/lib/python2.7/site-packages/matplotlib/mpl-data/fonts/pdfcorefonts/Times-Bold.afm
p1369
aV/home/jeff/.local/lib/python2.7/site-packages/matplotlib/mpl-data/fonts/afm/pbkli8a.afm
p1370
aV/home/jeff/.local/lib/python2.7/site-packages/matplotlib/mpl-data/fonts/afm/phvro8an.afm
p1371
aV/home/jeff/.local/lib/python2.7/site-packages/matplotlib/mpl-data/fonts/pdfcorefonts/Times-BoldItalic.afm
p1372
aV/home/jeff/.local/lib/python2.7/site-packages/matplotlib/mpl-data/fonts/afm/pzcmi8a.afm
p1373
aV/home/jeff/.local/lib/python2.7/site-packages/matplotlib/mpl-data/fonts/pdfcorefonts/Courier-Oblique.afm
p1374
aV/home/jeff/.local/lib/python2.7/site-packages/matplotlib/mpl-data/fonts/afm/pagdo8a.afm
p1375
aV/home/jeff/.local/lib/python2.7/site-packages/matplotlib/mpl-data/fonts/pdfcorefonts/Helvetica-Oblique.afm
p1376
aV/usr/share/fonts/type1/gsfonts/n021024l.afm
p1377
aV/usr/share/fonts/type1/gsfonts/n019024l.afm
p1378
aV/usr/share/fonts/type1/gsfonts/n021004l.afm
p1379
aV/usr/share/fonts/type1/gsfonts/s050000l.afm
p1380
aV/usr/share/fonts/type1/gsfonts/p052024l.afm
p1381
aV/usr/share/fonts/type1/gsfonts/p052004l.afm
p1382
aV/usr/share/fonts/X11/Type1/c0648bt_.afm
p1383
aV/usr/share/fonts/type1/gsfonts/b018012l.afm
p1384
aV/usr/share/fonts/type1/gsfonts/n022003l.afm
p1385
aV/usr/share/fonts/type1/gsfonts/c059013l.afm
p1386
aV/usr/share/fonts/type1/gsfonts/a010033l.afm
p1387
aV/usr/share/fonts/type1/gsfonts/n019044l.afm
p1388
aV/usr/share/fonts/type1/gsfonts/z003034l.afm
p1389
aV/usr/share/fonts/type1/gsfonts/n022024l.afm
p1390
aV/usr/share/fonts/type1/gsfonts/n019043l.afm
p1391
aV/usr/share/fonts/X11/Type1/c0633bt_.afm
p1392
aV/usr/share/fonts/X11/Type1/c0649bt_.afm
p1393
aV/usr/share/fonts/type1/gsfonts/b018035l.afm
p1394
aV/usr/share/fonts/type1/gsfonts/n019064l.afm
p1395
aV/usr/share/fonts/type1/gsfonts/n019003l.afm
p1396
aV/usr/share/fonts/type1/gsfonts/d050000l.afm
p1397
aV/usr/share/fonts/type1/gsfonts/p052023l.afm
p1398
aV/usr/share/fonts/type1/gsfonts/a010013l.afm
p1399
aV/usr/share/fonts/X11/Type1/c0582bt_.afm
p1400
aV/usr/share/fonts/type1/gsfonts/n022004l.afm
p1401
aV/usr/share/fonts/X11/Type1/c0583bt_.afm
p1402
aV/usr/share/fonts/type1/gsfonts/n021003l.afm
p1403
aV/usr/share/fonts/type1/gsfonts/c059033l.afm
p1404
aV/usr/share/fonts/type1/gsfonts/n019023l.afm
p1405
aV/usr/share/fonts/type1/gsfonts/n019063l.afm
p1406
aV/usr/share/fonts/X11/Type1/c0611bt_.afm
p1407
aV/usr/share/fonts/type1/gsfonts/c059036l.afm
p1408
aV/usr/share/fonts/type1/gsfonts/n019004l.afm
p1409
aV/usr/share/fonts/type1/gsfonts/p052003l.afm
p1410
aV/usr/share/fonts/type1/gsfonts/a010015l.afm
p1411
aV/usr/share/fonts/type1/gsfonts/b018032l.afm
p1412
aV/usr/share/fonts/type1/gsfonts/c059016l.afm
p1413
aV/usr/share/fonts/type1/gsfonts/n022023l.afm
p1414
aV/usr/share/fonts/type1/gsfonts/n021023l.afm
p1415
aV/usr/share/fonts/type1/gsfonts/a010035l.afm
p1416
aV/usr/share/fonts/type1/gsfonts/b018015l.afm
p1417
aV/usr/share/fonts/X11/Type1/c0632bt_.afm
p1418
aV/usr/share/fonts/X11/Type1/c0419bt_.afm
p1419
asS'afmlist'
p1420
(lp1421
g1
(g8
g3
NtRp1422
(dp1423
g11
Vitalic
p1424
sg13
S'New Century Schoolbook'
p1425
sg15
I500
sg16
Vnormal
p1426
sg18
g1426
sg19
g1315
sg21
Vscalable
p1427
sbag1
(g8
g3
NtRp1428
(dp1429
g11
g1426
sg13
S'Helvetica'
p1430
sg15
I700
sg16
g1426
sg18
g1426
sg19
g1318
sg21
g1427
sbag1
(g8
g3
NtRp1431
(dp1432
g11
g1424
sg13
S'Courier'
p1433
sg15
I700
sg16
g1426
sg18
g1426
sg19
g1319
sg21
g1427
sbag1
(g8
g3
NtRp1434
(dp1435
g11
g1426
sg13
S'New Century Schoolbook'
p1436
sg15
I500
sg16
g1426
sg18
g1426
sg19
g1320
sg21
g1427
sbag1
(g8
g3
NtRp1437
(dp1438
g11
g1426
sg13
S'Times'
p1439
sg15
I500
sg16
g1426
sg18
g1426
sg19
g1321
sg21
g1427
sbag1
(g8
g3
NtRp1440
(dp1441
g11
g1424
sg13
S'Utopia'
p1442
sg15
I400
sg16
g1426
sg18
g1426
sg19
g1322
sg21
g1427
sbag1
(g8
g3
NtRp1443
(dp1444
g11
g1426
sg13
S'Times'
p1445
sg15
I500
sg16
g1426
sg18
g1426
sg19
g1323
sg21
g1427
sbag1
(g8
g3
NtRp1446
(dp1447
g11
g1426
sg13
S'New Century Schoolbook'
p1448
sg15
I700
sg16
g1426
sg18
g1426
sg19
g1324
sg21
g1427
sbag1
(g8
g3
NtRp1449
(dp1450
g11
g1426
sg13
S'Helvetica'
p1451
sg15
I500
sg16
g1426
sg18
g1426
sg19
g1325
sg21
g1427
sbag1
(g8
g3
NtRp1452
(dp1453
g11
g1424
sg13
S'Palatino'
p1454
sg15
I500
sg16
g1426
sg18
g1426
sg19
g1326
sg21
g1427
sbag1
(g8
g3
NtRp1455
(dp1456
g11
g1424
sg13
S'Helvetica'
p1457
sg15
I700
sg16
Vcondensed
p1458
sg18
g1426
sg19
g1327
sg21
g1427
sbag1
(g8
g3
NtRp1459
(dp1460
g11
g1424
sg13
S'Helvetica'
p1461
sg15
I500
sg16
g1426
sg18
g1426
sg19
g1328
sg21
g1427
sbag1
(g8
g3
NtRp1462
(dp1463
g11
g1424
sg13
S'ITC Avant Garde Gothic'
p1464
sg15
I400
sg16
g1426
sg18
g1426
sg19
g1329
sg21
g1427
sbag1
(g8
g3
NtRp1465
(dp1466
g11
g1424
sg13
S'Courier'
p1467
sg15
I700
sg16
g1426
sg18
g1426
sg19
g1330
sg21
g1427
sbag1
(g8
g3
NtRp1468
(dp1469
g11
g1424
sg13
S'Computer Modern'
p1470
sg15
I500
sg16
g1426
sg18
g1426
sg19
g1331
sg21
g1427
sbag1
(g8
g3
NtRp1471
(dp1472
g11
g1426
sg13
S'Helvetica'
p1473
sg15
I700
sg16
g1458
sg18
g1426
sg19
g1332
sg21
g1427
sbag1
(g8
g3
NtRp1474
(dp1475
g11
g1424
sg13
S'Helvetica'
p1476
sg15
I700
sg16
g1426
sg18
g1426
sg19
g1333
sg21
g1427
sbag1
(g8
g3
NtRp1477
(dp1478
g11
g1426
sg13
S'Times'
p1479
sg15
I700
sg16
g1426
sg18
g1426
sg19
g1334
sg21
g1427
sbag1
(g8
g3
NtRp1480
(dp1481
g11
g1426
sg13
S'Courier'
p1482
sg15
I500
sg16
g1426
sg18
g1426
sg19
g1335
sg21
g1427
sbag1
(g8
g3
NtRp1483
(dp1484
g11
g1424
sg13
S'Times'
p1485
sg15
I700
sg16
g1426
sg18
g1426
sg19
g1336
sg21
g1427
sbag1
(g8
g3
NtRp1486
(dp1487
g11
g1424
sg13
S'New Century Schoolbook'
p1488
sg15
I700
sg16
g1426
sg18
g1426
sg19
g1337
sg21
g1427
sbag1
(g8
g3
NtRp1489
(dp1490
g11
g1426
sg13
S'Palatino'
p1491
sg15
I500
sg16
g1426
sg18
g1426
sg19
g1338
sg21
g1427
sbag1
(g8
g3
NtRp1492
(dp1493
g11
g1426
sg13
S'ITC Avant Garde Gothic'
p1494
sg15
I400
sg16
g1426
sg18
g1426
sg19
g1339
sg21
g1427
sbag1
(g8
g3
NtRp1495
(dp1496
g11
g1424
sg13
S'Computer Modern'
p1497
sg15
I500
sg16
g1426
sg18
g1426
sg19
g1340
sg21
g1427
sbag1
(g8
g3
NtRp1498
(dp1499
g11
g1426
sg13
S'Utopia'
p1500
sg15
I700
sg16
g1426
sg18
g1426
sg19
g1341
sg21
g1427
sbag1
(g8
g3
NtRp1501
(dp1502
g11
g1424
sg13
S'Times'
p1503
sg15
I500
sg16
g1426
sg18
g1426
sg19
g1342
sg21
g1427
sbag1
(g8
g3
NtRp1504
(dp1505
g11
g1426
sg13
S'Courier'
p1506
sg15
I700
sg16
g1426
sg18
g1426
sg19
g1343
sg21
g1427
sbag1
(g8
g3
NtRp1507
(dp1508
g11
g1426
sg13
S'Computer Modern'
p1509
sg15
I500
sg16
g1426
sg18
g1426
sg19
g1344
sg21
g1427
sbag1
(g8
g3
NtRp1510
(dp1511
g11
g1424
sg13
S'Helvetica'
p1512
sg15
I700
sg16
g1426
sg18
g1426
sg19
g1345
sg21
g1427
sbag1
(g8
g3
NtRp1513
(dp1514
g11
g1426
sg13
S'ZapfDingbats'
p1515
sg15
I500
sg16
g1426
sg18
g1426
sg19
g1346
sg21
g1427
sbag1
(g8
g3
NtRp1516
(dp1517
g11
g1424
sg13
S'Helvetica'
p1518
sg15
I200
sg16
g1426
sg18
g1426
sg19
g1347
sg21
g1427
sbag1
(g8
g3
NtRp1519
(dp1520
g11
g1424
sg13
S'ITC Bookman'
p1521
sg15
I600
sg16
g1426
sg18
g1426
sg19
g1348
sg21
g1427
sbag1
(g8
g3
NtRp1522
(dp1523
g11
g1426
sg13
S'ITC Bookman'
p1524
sg15
I200
sg16
g1426
sg18
g1426
sg19
g1349
sg21
g1427
sbag1
(g8
g3
NtRp1525
(dp1526
g11
g1426
sg13
S'Computer Modern'
p1527
sg15
I500
sg16
g1426
sg18
g1426
sg19
g1350
sg21
g1427
sbag1
(g8
g3
NtRp1528
(dp1529
g11
g1426
sg13
S'Courier'
p1530
sg15
I500
sg16
g1426
sg18
g1426
sg19
g1351
sg21
g1427
sbag1
(g8
g3
NtRp1531
(dp1532
g11
g1424
sg13
S'Courier'
p1533
sg15
I500
sg16
g1426
sg18
g1426
sg19
g1352
sg21
g1427
sbag1
(g8
g3
NtRp1534
(dp1535
g11
g1426
sg13
S'Courier'
p1536
sg15
I700
sg16
g1426
sg18
g1426
sg19
g1353
sg21
g1427
sbag1
(g8
g3
NtRp1537
(dp1538
g11
g1426
sg13
S'Helvetica'
p1539
sg15
I500
sg16
g1458
sg18
g1426
sg19
g1354
sg21
g1427
sbag1
(g8
g3
NtRp1540
(dp1541
g11
g1426
sg13
S'Helvetica'
p1542
sg15
I700
sg16
g1426
sg18
g1426
sg19
g1355
sg21
g1427
sbag1
(g8
g3
NtRp1543
(dp1544
g11
g1424
sg13
S'Times'
p1545
sg15
I500
sg16
g1426
sg18
g1426
sg19
g1356
sg21
g1427
sbag1
(g8
g3
NtRp1546
(dp1547
g11
g1426
sg13
S'Palatino'
p1548
sg15
I700
sg16
g1426
sg18
g1426
sg19
g1357
sg21
g1427
sbag1
(g8
g3
NtRp1549
(dp1550
g11
g1424
sg13
S'Palatino'
p1551
sg15
I700
sg16
g1426
sg18
g1426
sg19
g1358
sg21
g1427
sbag1
(g8
g3
NtRp1552
(dp1553
g11
g1426
sg13
S'Symbol'
p1554
sg15
I500
sg16
g1426
sg18
g1426
sg19
g1359
sg21
g1427
sbag1
(g8
g3
NtRp1555
(dp1556
g11
g1426
sg13
S'Helvetica'
p1557
sg15
I200
sg16
g1426
sg18
g1426
sg19
g1360
sg21
g1427
sbag1
(g8
g3
NtRp1558
(dp1559
g11
g1426
sg13
S'Utopia'
p1560
sg15
I400
sg16
g1426
sg18
g1426
sg19
g1361
sg21
g1427
sbag1
(g8
g3
NtRp1561
(dp1562
g11
g1426
sg13
S'ITC Bookman'
p1563
sg15
I600
sg16
g1426
sg18
g1426
sg19
g1362
sg21
g1427
sbag1
(g8
g3
NtRp1564
(dp1565
g11
g1426
sg13
S'ITC Zapf Dingbats'
p1566
sg15
I500
sg16
g1426
sg18
g1426
sg19
g1363
sg21
g1427
sbag1
(g8
g3
NtRp1567
(dp1568
g11
g1426
sg13
S'Helvetica'
p1569
sg15
I500
sg16
g1426
sg18
g1426
sg19
g1364
sg21
g1427
sbag1
(g8
g3
NtRp1570
(dp1571
g11
g1424
sg13
S'Utopia'
p1572
sg15
I700
sg16
g1426
sg18
g1426
sg19
g1365
sg21
g1427
sbag1
(g8
g3
NtRp1573
(dp1574
g11
g1426
sg13
S'Computer Modern'
p1575
sg15
I500
sg16
g1426
sg18
g1426
sg19
g1366
sg21
g1427
sbag1
(g8
g3
NtRp1576
(dp1577
g11
g1426
sg13
S'Symbol'
p1578
sg15
I500
sg16
g1426
sg18
g1426
sg19
g1367
sg21
g1427
sbag1
(g8
g3
NtRp1579
(dp1580
g11
g1426
sg13
S'ITC Avant Garde Gothic'
p1581
sg15
I600
sg16
g1426
sg18
g1426
sg19
g1368
sg21
g1427
sbag1
(g8
g3
NtRp1582
(dp1583
g11
g1426
sg13
S'Times'
p1584
sg15
I700
sg16
g1426
sg18
g1426
sg19
g1369
sg21
g1427
sbag1
(g8
g3
NtRp1585
(dp1586
g11
g1424
sg13
S'ITC Bookman'
p1587
sg15
I200
sg16
g1426
sg18
g1426
sg19
g1370
sg21
g1427
sbag1
(g8
g3
NtRp1588
(dp1589
g11
g1424
sg13
S'Helvetica'
p1590
sg15
I500
sg16
g1458
sg18
g1426
sg19
g1371
sg21
g1427
sbag1
(g8
g3
NtRp1591
(dp1592
g11
g1424
sg13
S'Times'
p1593
sg15
I700
sg16
g1426
sg18
g1426
sg19
g1372
sg21
g1427
sbag1
(g8
g3
NtRp1594
(dp1595
g11
g1424
sg13
S'ITC Zapf Chancery'
p1596
sg15
I500
sg16
g1426
sg18
g1426
sg19
g1373
sg21
g1427
sbag1
(g8
g3
NtRp1597
(dp1598
g11
g1424
sg13
S'Courier'
p1599
sg15
I500
sg16
g1426
sg18
g1426
sg19
g1374
sg21
g1427
sbag1
(g8
g3
NtRp1600
(dp1601
g11
g1424
sg13
S'ITC Avant Garde Gothic'
p1602
sg15
I600
sg16
g1426
sg18
g1426
sg19
g1375
sg21
g1427
sbag1
(g8
g3
NtRp1603
(dp1604
g11
g1424
sg13
S'Helvetica'
p1605
sg15
I500
sg16
g1426
sg18
g1426
sg19
g1376
sg21
g1427
sbag1
(g8
g3
NtRp1606
(dp1607
g11
g1424
sg13
S'Nimbus Roman No9 L'
p1608
sg15
I700
sg16
g1426
sg18
g1426
sg19
g1377
sg21
g1427
sbag1
(g8
g3
NtRp1609
(dp1610
g11
g1424
sg13
S'Nimbus Sans L'
p1611
sg15
I700
sg16
g1426
sg18
g1426
sg19
g1378
sg21
g1427
sbag1
(g8
g3
NtRp1612
(dp1613
g11
g1426
sg13
S'Nimbus Roman No9 L'
p1614
sg15
I700
sg16
g1426
sg18
g1426
sg19
g1379
sg21
g1427
sbag1
(g8
g3
NtRp1615
(dp1616
g11
g1426
sg13
S'Standard Symbols L'
p1617
sg15
I400
sg16
g1426
sg18
g1426
sg19
g1380
sg21
g1427
sbag1
(g8
g3
NtRp1618
(dp1619
g11
g1424
sg13
S'URW Palladio L'
p1620
sg15
I700
sg16
g1426
sg18
g1426
sg19
g1381
sg21
g1427
sbag1
(g8
g3
NtRp1621
(dp1622
g11
g1426
sg13
S'URW Palladio L'
p1623
sg15
I700
sg16
g1426
sg18
g1426
sg19
g1382
sg21
g1427
sbag1
(g8
g3
NtRp1624
(dp1625
g11
g1426
sg13
S'Bitstream Charter'
p1626
sg15
I400
sg16
g1426
sg18
g1426
sg19
g1383
sg21
g1427
sbag1
(g8
g3
NtRp1627
(dp1628
g11
g1426
sg13
S'URW Bookman L'
p1629
sg15
I400
sg16
g1426
sg18
g1426
sg19
g1384
sg21
g1427
sbag1
(g8
g3
NtRp1630
(dp1631
g11
g1426
sg13
S'Nimbus Mono L'
p1632
sg15
I400
sg16
g1426
sg18
g1426
sg19
g1385
sg21
g1427
sbag1
(g8
g3
NtRp1633
(dp1634
g11
g1426
sg13
S'Century Schoolbook L'
p1635
sg15
I500
sg16
g1426
sg18
g1426
sg19
g1386
sg21
g1427
sbag1
(g8
g3
NtRp1636
(dp1637
g11
g1424
sg13
S'URW Gothic L'
p1638
sg15
I400
sg16
g1426
sg18
g1426
sg19
g1387
sg21
g1427
sbag1
(g8
g3
NtRp1639
(dp1640
g11
g1426
sg13
S'Nimbus Sans L'
p1641
sg15
I700
sg16
g1458
sg18
g1426
sg19
g1388
sg21
g1427
sbag1
(g8
g3
NtRp1642
(dp1643
g11
g1424
sg13
S'URW Chancery L'
p1644
sg15
I500
sg16
g1426
sg18
g1426
sg19
g1389
sg21
g1427
sbag1
(g8
g3
NtRp1645
(dp1646
g11
g1424
sg13
S'Nimbus Mono L'
p1647
sg15
I700
sg16
g1426
sg18
g1426
sg19
g1390
sg21
g1427
sbag1
(g8
g3
NtRp1648
(dp1649
g11
g1426
sg13
S'Nimbus Sans L'
p1650
sg15
I400
sg16
g1458
sg18
g1426
sg19
g1391
sg21
g1427
sbag1
(g8
g3
NtRp1651
(dp1652
g11
g1424
sg13
S'Bitstream Charter'
p1653
sg15
I700
sg16
g1426
sg18
g1426
sg19
g1392
sg21
g1427
sbag1
(g8
g3
NtRp1654
(dp1655
g11
g1424
sg13
S'Bitstream Charter'
p1656
sg15
I400
sg16
g1426
sg18
g1426
sg19
g1393
sg21
g1427
sbag1
(g8
g3
NtRp1657
(dp1658
g11
g1424
sg13
S'URW Bookman L'
p1659
sg15
I700
sg16
g1426
sg18
g1426
sg19
g1394
sg21
g1427
sbag1
(g8
g3
NtRp1660
(dp1661
g11
g1424
sg13
S'Nimbus Sans L'
p1662
sg15
I700
sg16
g1458
sg18
g1426
sg19
g1395
sg21
g1427
sbag1
(g8
g3
NtRp1663
(dp1664
g11
g1426
sg13
S'Nimbus Sans L'
p1665
sg15
I400
sg16
g1426
sg18
g1426
sg19
g1396
sg21
g1427
sbag1
(g8
g3
NtRp1666
(dp1667
g11
g1426
sg13
S'Dingbats'
p1668
sg15
I400
sg16
g1426
sg18
g1426
sg19
g1397
sg21
g1427
sbag1
(g8
g3
NtRp1669
(dp1670
g11
g1424
sg13
S'URW Palladio L'
p1671
sg15
I400
sg16
g1426
sg18
g1426
sg19
g1398
sg21
g1427
sbag1
(g8
g3
NtRp1672
(dp1673
g11
g1426
sg13
S'URW Gothic L'
p1674
sg15
I400
sg16
g1426
sg18
g1426
sg19
g1399
sg21
g1427
sbag1
(g8
g3
NtRp1675
(dp1676
g11
g1424
sg13
S'Courier 10 Pitch'
p1677
sg15
I400
sg16
g1426
sg18
g1426
sg19
g1400
sg21
g1427
sbag1
(g8
g3
NtRp1678
(dp1679
g11
g1426
sg13
S'Nimbus Mono L'
p1680
sg15
I700
sg16
g1426
sg18
g1426
sg19
g1401
sg21
g1427
sbag1
(g8
g3
NtRp1681
(dp1682
g11
g1426
sg13
S'Courier 10 Pitch'
p1683
sg15
I700
sg16
g1426
sg18
g1426
sg19
g1402
sg21
g1427
sbag1
(g8
g3
NtRp1684
(dp1685
g11
g1426
sg13
S'Nimbus Roman No9 L'
p1686
sg15
I400
sg16
g1426
sg18
g1426
sg19
g1403
sg21
g1427
sbag1
(g8
g3
NtRp1687
(dp1688
g11
g1424
sg13
S'Century Schoolbook L'
p1689
sg15
I400
sg16
g1426
sg18
g1426
sg19
g1404
sg21
g1427
sbag1
(g8
g3
NtRp1690
(dp1691
g11
g1424
sg13
S'Nimbus Sans L'
p1692
sg15
I400
sg16
g1426
sg18
g1426
sg19
g1405
sg21
g1427
sbag1
(g8
g3
NtRp1693
(dp1694
g11
g1424
sg13
S'Nimbus Sans L'
p1695
sg15
I400
sg16
g1458
sg18
g1426
sg19
g1406
sg21
g1427
sbag1
(g8
g3
NtRp1696
(dp1697
g11
g1424
sg13
S'Courier 10 Pitch'
p1698
sg15
I700
sg16
g1426
sg18
g1426
sg19
g1407
sg21
g1427
sbag1
(g8
g3
NtRp1699
(dp1700
g11
g1424
sg13
S'Century Schoolbook L'
p1701
sg15
I700
sg16
g1426
sg18
g1426
sg19
g1408
sg21
g1427
sbag1
(g8
g3
NtRp1702
(dp1703
g11
g1426
sg13
S'Nimbus Sans L'
p1704
sg15
I700
sg16
g1426
sg18
g1426
sg19
g1409
sg21
g1427
sbag1
(g8
g3
NtRp1705
(dp1706
g11
g1426
sg13
S'URW Palladio L'
p1707
sg15
I500
sg16
g1426
sg18
g1426
sg19
g1410
sg21
g1427
sbag1
(g8
g3
NtRp1708
(dp1709
g11
g1426
sg13
S'URW Gothic L'
p1710
sg15
I600
sg16
g1426
sg18
g1426
sg19
g1411
sg21
g1427
sbag1
(g8
g3
NtRp1711
(dp1712
g11
g1424
sg13
S'URW Bookman L'
p1713
sg15
I400
sg16
g1426
sg18
g1426
sg19
g1412
sg21
g1427
sbag1
(g8
g3
NtRp1714
(dp1715
g11
g1426
sg13
S'Century Schoolbook L'
p1716
sg15
I700
sg16
g1426
sg18
g1426
sg19
g1413
sg21
g1427
sbag1
(g8
g3
NtRp1717
(dp1718
g11
g1424
sg13
S'Nimbus Mono L'
p1719
sg15
I400
sg16
g1426
sg18
g1426
sg19
g1414
sg21
g1427
sbag1
(g8
g3
NtRp1720
(dp1721
g11
g1424
sg13
S'Nimbus Roman No9 L'
p1722
sg15
I400
sg16
g1426
sg18
g1426
sg19
g1415
sg21
g1427
sbag1
(g8
g3
NtRp1723
(dp1724
g11
g1424
sg13
S'URW Gothic L'
p1725
sg15
I600
sg16
g1426
sg18
g1426
sg19
g1416
sg21
g1427
sbag1
(g8
g3
NtRp1726
(dp1727
g11
g1426
sg13
S'URW Bookman L'
p1728
sg15
I700
sg16
g1426
sg18
g1426
sg19
g1417
sg21
g1427
sbag1
(g8
g3
NtRp1729
(dp1730
g11
g1426
sg13
S'Bitstream Charter'
p1731
sg15
I700
sg16
g1426
sg18
g1426
sg19
g1418
sg21
g1427
sbag1
(g8
g3
NtRp1732
(dp1733
g11
g1426
sg13
S'Courier 10 Pitch'
p1734
sg15
I400
sg16
g1426
sg18
g1426
sg19
g1419
sg21
g1427
sbasb.